
TP3_Microchip.elf:     file format elf32-avr

Sections:
Idx Name          Size      VMA       LMA       File off  Algn
  0 .data         0000005a  00800100  00000f02  00000f96  2**0
                  CONTENTS, ALLOC, LOAD, DATA
  1 .text         00000f02  00000000  00000000  00000094  2**1
                  CONTENTS, ALLOC, LOAD, READONLY, CODE
  2 .bss          00000006  0080015a  0080015a  00000ff0  2**0
                  ALLOC
  3 .comment      0000005c  00000000  00000000  00000ff0  2**0
                  CONTENTS, READONLY
  4 .note.gnu.avr.deviceinfo 00000040  00000000  00000000  0000104c  2**2
                  CONTENTS, READONLY
  5 .debug_aranges 00000138  00000000  00000000  0000108c  2**0
                  CONTENTS, READONLY, DEBUGGING
  6 .debug_info   00001b5b  00000000  00000000  000011c4  2**0
                  CONTENTS, READONLY, DEBUGGING
  7 .debug_abbrev 00000c0a  00000000  00000000  00002d1f  2**0
                  CONTENTS, READONLY, DEBUGGING
  8 .debug_line   00000cc9  00000000  00000000  00003929  2**0
                  CONTENTS, READONLY, DEBUGGING
  9 .debug_frame  00000344  00000000  00000000  000045f4  2**2
                  CONTENTS, READONLY, DEBUGGING
 10 .debug_str    00000680  00000000  00000000  00004938  2**0
                  CONTENTS, READONLY, DEBUGGING
 11 .debug_loc    00001394  00000000  00000000  00004fb8  2**0
                  CONTENTS, READONLY, DEBUGGING
 12 .debug_ranges 00000120  00000000  00000000  0000634c  2**0
                  CONTENTS, READONLY, DEBUGGING

Disassembly of section .text:

00000000 <__vectors>:
   0:	0c 94 54 00 	jmp	0xa8	; 0xa8 <__ctors_end>
   4:	0c 94 71 00 	jmp	0xe2	; 0xe2 <__bad_interrupt>
   8:	0c 94 71 00 	jmp	0xe2	; 0xe2 <__bad_interrupt>
   c:	0c 94 71 00 	jmp	0xe2	; 0xe2 <__bad_interrupt>
  10:	0c 94 71 00 	jmp	0xe2	; 0xe2 <__bad_interrupt>
  14:	0c 94 71 00 	jmp	0xe2	; 0xe2 <__bad_interrupt>
  18:	0c 94 71 00 	jmp	0xe2	; 0xe2 <__bad_interrupt>
  1c:	0c 94 71 00 	jmp	0xe2	; 0xe2 <__bad_interrupt>
  20:	0c 94 71 00 	jmp	0xe2	; 0xe2 <__bad_interrupt>
  24:	0c 94 71 00 	jmp	0xe2	; 0xe2 <__bad_interrupt>
  28:	0c 94 71 00 	jmp	0xe2	; 0xe2 <__bad_interrupt>
  2c:	0c 94 71 00 	jmp	0xe2	; 0xe2 <__bad_interrupt>
  30:	0c 94 71 00 	jmp	0xe2	; 0xe2 <__bad_interrupt>
  34:	0c 94 71 00 	jmp	0xe2	; 0xe2 <__bad_interrupt>
  38:	0c 94 71 00 	jmp	0xe2	; 0xe2 <__bad_interrupt>
  3c:	0c 94 71 00 	jmp	0xe2	; 0xe2 <__bad_interrupt>
  40:	0c 94 71 00 	jmp	0xe2	; 0xe2 <__bad_interrupt>
  44:	0c 94 71 00 	jmp	0xe2	; 0xe2 <__bad_interrupt>
  48:	0c 94 71 00 	jmp	0xe2	; 0xe2 <__bad_interrupt>
  4c:	0c 94 71 00 	jmp	0xe2	; 0xe2 <__bad_interrupt>
  50:	0c 94 71 00 	jmp	0xe2	; 0xe2 <__bad_interrupt>
  54:	0c 94 71 00 	jmp	0xe2	; 0xe2 <__bad_interrupt>
  58:	0c 94 71 00 	jmp	0xe2	; 0xe2 <__bad_interrupt>
  5c:	0c 94 71 00 	jmp	0xe2	; 0xe2 <__bad_interrupt>
  60:	0c 94 71 00 	jmp	0xe2	; 0xe2 <__bad_interrupt>
  64:	0c 94 71 00 	jmp	0xe2	; 0xe2 <__bad_interrupt>

00000068 <LcdCustomChar>:
  68:	00 1f 00 00 00 00 1f 00 00 1f 10 10 10 10 1f 00     ................
  78:	00 1f 18 18 18 18 1f 00 00 1f 1c 1c 1c 1c 1f 00     ................
  88:	00 1f 1e 1e 1e 1e 1f 00 00 1f 1f 1f 1f 1f 1f 00     ................
  98:	03 07 0f 1f 0f 07 03 00 18 1c 1e 1f 1e 1c 18 00     ................

000000a8 <__ctors_end>:
  a8:	11 24       	eor	r1, r1
  aa:	1f be       	out	0x3f, r1	; 63
  ac:	cf ef       	ldi	r28, 0xFF	; 255
  ae:	d8 e0       	ldi	r29, 0x08	; 8
  b0:	de bf       	out	0x3e, r29	; 62
  b2:	cd bf       	out	0x3d, r28	; 61

000000b4 <__do_copy_data>:
  b4:	11 e0       	ldi	r17, 0x01	; 1
  b6:	a0 e0       	ldi	r26, 0x00	; 0
  b8:	b1 e0       	ldi	r27, 0x01	; 1
  ba:	e2 e0       	ldi	r30, 0x02	; 2
  bc:	ff e0       	ldi	r31, 0x0F	; 15
  be:	02 c0       	rjmp	.+4      	; 0xc4 <__do_copy_data+0x10>
  c0:	05 90       	lpm	r0, Z+
  c2:	0d 92       	st	X+, r0
  c4:	aa 35       	cpi	r26, 0x5A	; 90
  c6:	b1 07       	cpc	r27, r17
  c8:	d9 f7       	brne	.-10     	; 0xc0 <__do_copy_data+0xc>

000000ca <__do_clear_bss>:
  ca:	21 e0       	ldi	r18, 0x01	; 1
  cc:	aa e5       	ldi	r26, 0x5A	; 90
  ce:	b1 e0       	ldi	r27, 0x01	; 1
  d0:	01 c0       	rjmp	.+2      	; 0xd4 <.do_clear_bss_start>

000000d2 <.do_clear_bss_loop>:
  d2:	1d 92       	st	X+, r1

000000d4 <.do_clear_bss_start>:
  d4:	a0 36       	cpi	r26, 0x60	; 96
  d6:	b2 07       	cpc	r27, r18
  d8:	e1 f7       	brne	.-8      	; 0xd2 <.do_clear_bss_loop>
  da:	0e 94 c5 03 	call	0x78a	; 0x78a <main>
  de:	0c 94 7f 07 	jmp	0xefe	; 0xefe <_exit>

000000e2 <__bad_interrupt>:
  e2:	0c 94 00 00 	jmp	0	; 0x0 <__vectors>

000000e6 <DHT11_init>:
#include <string.h>
#include <stdio.h>


void DHT11_init(){
	DDRC |= (1<<PIN);		//PINC0 COMO SALIDA
  e6:	87 b1       	in	r24, 0x07	; 7
  e8:	81 60       	ori	r24, 0x01	; 1
  ea:	87 b9       	out	0x07, r24	; 7
	PORTC |= (1<<PIN);	// PORTC0 EN ALTO
  ec:	88 b1       	in	r24, 0x08	; 8
  ee:	81 60       	ori	r24, 0x01	; 1
  f0:	88 b9       	out	0x08, r24	; 8
  f2:	08 95       	ret

000000f4 <DHT11_read>:
};

uint8_t DHT11_read(uint8_t *temperatura_int, uint8_t *temperatura_dec, uint8_t *humedad_int, uint8_t *humedad_dec) {
  f4:	8f 92       	push	r8
  f6:	9f 92       	push	r9
  f8:	af 92       	push	r10
  fa:	bf 92       	push	r11
  fc:	cf 92       	push	r12
  fe:	df 92       	push	r13
 100:	ef 92       	push	r14
 102:	ff 92       	push	r15
 104:	0f 93       	push	r16
 106:	1f 93       	push	r17
 108:	cf 93       	push	r28
 10a:	df 93       	push	r29
 10c:	00 d0       	rcall	.+0      	; 0x10e <DHT11_read+0x1a>
 10e:	00 d0       	rcall	.+0      	; 0x110 <DHT11_read+0x1c>
 110:	1f 92       	push	r1
 112:	cd b7       	in	r28, 0x3d	; 61
 114:	de b7       	in	r29, 0x3e	; 62
 116:	dc 01       	movw	r26, r24
 118:	79 01       	movw	r14, r18
	uint8_t i,j=0;
	uint8_t contador = 0;
	
	//Paso 1, enviar un puslo en bajo durante18ms
	
	PORTC &= ~(1<<PIN);		//Nivel bajo
 11a:	88 b1       	in	r24, 0x08	; 8
 11c:	8e 7f       	andi	r24, 0xFE	; 254
 11e:	88 b9       	out	0x08, r24	; 8
	#else
		//round up by default
		__ticks_dc = (uint32_t)(ceil(fabs(__tmp)));
	#endif

	__builtin_avr_delay_cycles(__ticks_dc);
 120:	2f ef       	ldi	r18, 0xFF	; 255
 122:	80 ee       	ldi	r24, 0xE0	; 224
 124:	90 e0       	ldi	r25, 0x00	; 0
 126:	21 50       	subi	r18, 0x01	; 1
 128:	80 40       	sbci	r24, 0x00	; 0
 12a:	90 40       	sbci	r25, 0x00	; 0
 12c:	e1 f7       	brne	.-8      	; 0x126 <DHT11_read+0x32>
 12e:	00 c0       	rjmp	.+0      	; 0x130 <DHT11_read+0x3c>
 130:	00 00       	nop
	_delay_ms(18);
	PORTC |= (1<<PIN);		//Nivel alto
 132:	88 b1       	in	r24, 0x08	; 8
 134:	81 60       	ori	r24, 0x01	; 1
 136:	88 b9       	out	0x08, r24	; 8
	DDRC &= ~(1<<PIN);		//PINC0 como entrada
 138:	87 b1       	in	r24, 0x07	; 7
 13a:	8e 7f       	andi	r24, 0xFE	; 254
 13c:	87 b9       	out	0x07, r24	; 7
	
	//Paso 2 esperamos 20 a 40us hasta que el dht11 envie 0
	contador = 0;
 13e:	30 e0       	ldi	r19, 0x00	; 0
	while(PINC & (1<<PIN))
 140:	0f c0       	rjmp	.+30     	; 0x160 <DHT11_read+0x6c>
	#else
		//round up by default
		__ticks_dc = (uint32_t)(ceil(fabs(__tmp)));
	#endif

	__builtin_avr_delay_cycles(__ticks_dc);
 142:	ea e0       	ldi	r30, 0x0A	; 10
 144:	ea 95       	dec	r30
 146:	f1 f7       	brne	.-4      	; 0x144 <DHT11_read+0x50>
 148:	00 c0       	rjmp	.+0      	; 0x14a <DHT11_read+0x56>
	{
		_delay_us(2);
		contador += 2;
 14a:	3e 5f       	subi	r19, 0xFE	; 254
		if (contador > 60)
 14c:	3d 33       	cpi	r19, 0x3D	; 61
 14e:	40 f0       	brcs	.+16     	; 0x160 <DHT11_read+0x6c>
		{
			DDRC |= (1<<PIN);	//PINC0 como salida
 150:	87 b1       	in	r24, 0x07	; 7
 152:	81 60       	ori	r24, 0x01	; 1
 154:	87 b9       	out	0x07, r24	; 7
			PORTC |= (1<<PIN);	//Nivel alto
 156:	88 b1       	in	r24, 0x08	; 8
 158:	81 60       	ori	r24, 0x01	; 1
 15a:	88 b9       	out	0x08, r24	; 8
			return 0;
 15c:	10 e0       	ldi	r17, 0x00	; 0
 15e:	71 c0       	rjmp	.+226    	; 0x242 <DHT11_read+0x14e>
	PORTC |= (1<<PIN);		//Nivel alto
	DDRC &= ~(1<<PIN);		//PINC0 como entrada
	
	//Paso 2 esperamos 20 a 40us hasta que el dht11 envie 0
	contador = 0;
	while(PINC & (1<<PIN))
 160:	96 b1       	in	r25, 0x06	; 6
 162:	29 2f       	mov	r18, r25
 164:	21 70       	andi	r18, 0x01	; 1
 166:	90 fd       	sbrc	r25, 0
 168:	ec cf       	rjmp	.-40     	; 0x142 <DHT11_read+0x4e>
 16a:	30 e0       	ldi	r19, 0x00	; 0
 16c:	0e c0       	rjmp	.+28     	; 0x18a <DHT11_read+0x96>
 16e:	fa e0       	ldi	r31, 0x0A	; 10
 170:	fa 95       	dec	r31
 172:	f1 f7       	brne	.-4      	; 0x170 <DHT11_read+0x7c>
 174:	00 c0       	rjmp	.+0      	; 0x176 <DHT11_read+0x82>
	//Paso 3 esperamos 80us hasta que el dht11 envie 1
	contador = 0;
	while(!(PINC & (1<<PIN)))
	{
		_delay_us(2);
		contador += 2;
 176:	3e 5f       	subi	r19, 0xFE	; 254
		if (contador > 100)
 178:	35 36       	cpi	r19, 0x65	; 101
 17a:	38 f0       	brcs	.+14     	; 0x18a <DHT11_read+0x96>
		{
			DDRC |= (1<<PIN);	//PINC0 como salida
 17c:	87 b1       	in	r24, 0x07	; 7
 17e:	81 60       	ori	r24, 0x01	; 1
 180:	87 b9       	out	0x07, r24	; 7
			PORTC |= (1<<PIN);	//Nivel alto
 182:	88 b1       	in	r24, 0x08	; 8
 184:	81 60       	ori	r24, 0x01	; 1
 186:	88 b9       	out	0x08, r24	; 8
			return 0;
 188:	5c c0       	rjmp	.+184    	; 0x242 <DHT11_read+0x14e>
		}
	}
	
	//Paso 3 esperamos 80us hasta que el dht11 envie 1
	contador = 0;
	while(!(PINC & (1<<PIN)))
 18a:	96 b1       	in	r25, 0x06	; 6
 18c:	19 2f       	mov	r17, r25
 18e:	11 70       	andi	r17, 0x01	; 1
 190:	90 ff       	sbrs	r25, 0
 192:	ed cf       	rjmp	.-38     	; 0x16e <DHT11_read+0x7a>
 194:	90 e0       	ldi	r25, 0x00	; 0
 196:	0f c0       	rjmp	.+30     	; 0x1b6 <DHT11_read+0xc2>
 198:	8a e0       	ldi	r24, 0x0A	; 10
 19a:	8a 95       	dec	r24
 19c:	f1 f7       	brne	.-4      	; 0x19a <DHT11_read+0xa6>
 19e:	00 c0       	rjmp	.+0      	; 0x1a0 <DHT11_read+0xac>
	//Paso 4 esperamos 80us hasta que el dht11 envie 0
	contador = 0;
	while(PINC & (1<<PIN))
	{
		_delay_us(2);
		contador += 2;
 1a0:	9e 5f       	subi	r25, 0xFE	; 254
		if (contador > 100)
 1a2:	95 36       	cpi	r25, 0x65	; 101
 1a4:	40 f0       	brcs	.+16     	; 0x1b6 <DHT11_read+0xc2>
		{
			DDRC |= (1<<PIN);	//PINC0 como salida
 1a6:	87 b1       	in	r24, 0x07	; 7
 1a8:	81 60       	ori	r24, 0x01	; 1
 1aa:	87 b9       	out	0x07, r24	; 7
			PORTC |= (1<<PIN);	//Nivel alto
 1ac:	88 b1       	in	r24, 0x08	; 8
 1ae:	81 60       	ori	r24, 0x01	; 1
 1b0:	88 b9       	out	0x08, r24	; 8
			return 0;
 1b2:	12 2f       	mov	r17, r18
 1b4:	46 c0       	rjmp	.+140    	; 0x242 <DHT11_read+0x14e>
		}
	}
	
	//Paso 4 esperamos 80us hasta que el dht11 envie 0
	contador = 0;
	while(PINC & (1<<PIN))
 1b6:	86 b1       	in	r24, 0x06	; 6
 1b8:	18 2f       	mov	r17, r24
 1ba:	11 70       	andi	r17, 0x01	; 1
 1bc:	80 fd       	sbrc	r24, 0
 1be:	ec cf       	rjmp	.-40     	; 0x198 <DHT11_read+0xa4>
 1c0:	00 e0       	ldi	r16, 0x00	; 0
 1c2:	24 c0       	rjmp	.+72     	; 0x20c <DHT11_read+0x118>
	for (j=0; j<5; j++)
	{
		uint8_t result=0;
		for (i=0; i<8; i++)
		{
			while (!(PINC & (1<<PIN))); // ESPERO alto 50us
 1c4:	30 9b       	sbis	0x06, 0	; 6
 1c6:	fe cf       	rjmp	.-4      	; 0x1c4 <DHT11_read+0xd0>
 1c8:	ea eb       	ldi	r30, 0xBA	; 186
 1ca:	ea 95       	dec	r30
 1cc:	f1 f7       	brne	.-4      	; 0x1ca <DHT11_read+0xd6>
 1ce:	00 c0       	rjmp	.+0      	; 0x1d0 <DHT11_read+0xdc>
			_delay_us(35);

			if (PINC & (1<<PIN))		// si està en alto, escribo 1 en el bit correspondiente
 1d0:	30 9b       	sbis	0x06, 0	; 6
 1d2:	0c c0       	rjmp	.+24     	; 0x1ec <DHT11_read+0xf8>
				result |= (1<<(7-i));
 1d4:	27 e0       	ldi	r18, 0x07	; 7
 1d6:	30 e0       	ldi	r19, 0x00	; 0
 1d8:	29 1b       	sub	r18, r25
 1da:	31 09       	sbc	r19, r1
 1dc:	e1 e0       	ldi	r30, 0x01	; 1
 1de:	f0 e0       	ldi	r31, 0x00	; 0
 1e0:	02 c0       	rjmp	.+4      	; 0x1e6 <DHT11_read+0xf2>
 1e2:	ee 0f       	add	r30, r30
 1e4:	ff 1f       	adc	r31, r31
 1e6:	2a 95       	dec	r18
 1e8:	e2 f7       	brpl	.-8      	; 0x1e2 <DHT11_read+0xee>
 1ea:	8e 2b       	or	r24, r30
			
			while(PINC & (1<<PIN));	// espero bajo 
 1ec:	30 99       	sbic	0x06, 0	; 6
 1ee:	fe cf       	rjmp	.-4      	; 0x1ec <DHT11_read+0xf8>
	
	//Paso 5 leemos los 40 bits o 5 bytes
	for (j=0; j<5; j++)
	{
		uint8_t result=0;
		for (i=0; i<8; i++)
 1f0:	9f 5f       	subi	r25, 0xFF	; 255
 1f2:	02 c0       	rjmp	.+4      	; 0x1f8 <DHT11_read+0x104>
 1f4:	80 e0       	ldi	r24, 0x00	; 0
 1f6:	90 e0       	ldi	r25, 0x00	; 0
 1f8:	98 30       	cpi	r25, 0x08	; 8
 1fa:	20 f3       	brcs	.-56     	; 0x1c4 <DHT11_read+0xd0>
			if (PINC & (1<<PIN))		// si està en alto, escribo 1 en el bit correspondiente
				result |= (1<<(7-i));
			
			while(PINC & (1<<PIN));	// espero bajo 
		}
		bytes[j] = result;
 1fc:	e1 e0       	ldi	r30, 0x01	; 1
 1fe:	f0 e0       	ldi	r31, 0x00	; 0
 200:	ec 0f       	add	r30, r28
 202:	fd 1f       	adc	r31, r29
 204:	e0 0f       	add	r30, r16
 206:	f1 1d       	adc	r31, r1
 208:	80 83       	st	Z, r24
			return 0;
		}
	}
	
	//Paso 5 leemos los 40 bits o 5 bytes
	for (j=0; j<5; j++)
 20a:	0f 5f       	subi	r16, 0xFF	; 255
 20c:	05 30       	cpi	r16, 0x05	; 5
 20e:	90 f3       	brcs	.-28     	; 0x1f4 <DHT11_read+0x100>
 210:	6a 01       	movw	r12, r20
 212:	5b 01       	movw	r10, r22
 214:	4d 01       	movw	r8, r26
			while(PINC & (1<<PIN));	// espero bajo 
		}
		bytes[j] = result;
	}
	
	DHT11_init(); // REINICIALIZO SENSOR
 216:	0e 94 73 00 	call	0xe6	; 0xe6 <DHT11_init>
	if ((uint8_t) (bytes[0] + bytes[1] + bytes[2] + bytes[3]) == bytes[4])		//Pregunta por el cheksum
 21a:	49 81       	ldd	r20, Y+1	; 0x01
 21c:	3a 81       	ldd	r19, Y+2	; 0x02
 21e:	2b 81       	ldd	r18, Y+3	; 0x03
 220:	9c 81       	ldd	r25, Y+4	; 0x04
 222:	84 2f       	mov	r24, r20
 224:	83 0f       	add	r24, r19
 226:	82 0f       	add	r24, r18
 228:	89 0f       	add	r24, r25
 22a:	5d 81       	ldd	r21, Y+5	; 0x05
 22c:	85 13       	cpse	r24, r21
 22e:	09 c0       	rjmp	.+18     	; 0x242 <DHT11_read+0x14e>
	{
		 * temperatura_int = bytes[0];
 230:	f4 01       	movw	r30, r8
 232:	40 83       	st	Z, r20
		 * temperatura_dec = bytes[1];
 234:	f5 01       	movw	r30, r10
 236:	30 83       	st	Z, r19
		 * humedad_int = bytes[2];
 238:	f6 01       	movw	r30, r12
 23a:	20 83       	st	Z, r18
		 * humedad_dec = bytes[3];
 23c:	f7 01       	movw	r30, r14
 23e:	90 83       	st	Z, r25
		 return 1;
 240:	11 e0       	ldi	r17, 0x01	; 1
	}
	
	return 0;
		
 242:	81 2f       	mov	r24, r17
 244:	0f 90       	pop	r0
 246:	0f 90       	pop	r0
 248:	0f 90       	pop	r0
 24a:	0f 90       	pop	r0
 24c:	0f 90       	pop	r0
 24e:	df 91       	pop	r29
 250:	cf 91       	pop	r28
 252:	1f 91       	pop	r17
 254:	0f 91       	pop	r16
 256:	ff 90       	pop	r15
 258:	ef 90       	pop	r14
 25a:	df 90       	pop	r13
 25c:	cf 90       	pop	r12
 25e:	bf 90       	pop	r11
 260:	af 90       	pop	r10
 262:	9f 90       	pop	r9
 264:	8f 90       	pop	r8
 266:	08 95       	ret

00000268 <LCDsendChar>:
		}
		
		// write character to display
		LCDsendChar(c);
	}	
}
 268:	65 b1       	in	r22, 0x05	; 5
 26a:	98 2f       	mov	r25, r24
 26c:	90 74       	andi	r25, 0x40	; 64
 26e:	49 2f       	mov	r20, r25
 270:	50 e0       	ldi	r21, 0x00	; 0
 272:	55 95       	asr	r21
 274:	47 95       	ror	r20
 276:	55 95       	asr	r21
 278:	47 95       	ror	r20
 27a:	55 95       	asr	r21
 27c:	47 95       	ror	r20
 27e:	55 95       	asr	r21
 280:	47 95       	ror	r20
 282:	98 2f       	mov	r25, r24
 284:	90 78       	andi	r25, 0x80	; 128
 286:	29 2f       	mov	r18, r25
 288:	30 e0       	ldi	r19, 0x00	; 0
 28a:	02 2e       	mov	r0, r18
 28c:	23 2f       	mov	r18, r19
 28e:	00 0c       	add	r0, r0
 290:	22 1f       	adc	r18, r18
 292:	33 0b       	sbc	r19, r19
 294:	00 0c       	add	r0, r0
 296:	22 1f       	adc	r18, r18
 298:	33 1f       	adc	r19, r19
 29a:	96 2f       	mov	r25, r22
 29c:	99 7f       	andi	r25, 0xF9	; 249
 29e:	49 2b       	or	r20, r25
 2a0:	24 2b       	or	r18, r20
 2a2:	25 b9       	out	0x05, r18	; 5
 2a4:	68 b1       	in	r22, 0x08	; 8
 2a6:	98 2f       	mov	r25, r24
 2a8:	90 71       	andi	r25, 0x10	; 16
 2aa:	49 2f       	mov	r20, r25
 2ac:	50 e0       	ldi	r21, 0x00	; 0
 2ae:	55 95       	asr	r21
 2b0:	47 95       	ror	r20
 2b2:	55 95       	asr	r21
 2b4:	47 95       	ror	r20
 2b6:	55 95       	asr	r21
 2b8:	47 95       	ror	r20
 2ba:	98 2f       	mov	r25, r24
 2bc:	90 72       	andi	r25, 0x20	; 32
 2be:	29 2f       	mov	r18, r25
 2c0:	30 e0       	ldi	r19, 0x00	; 0
 2c2:	35 95       	asr	r19
 2c4:	27 95       	ror	r18
 2c6:	35 95       	asr	r19
 2c8:	27 95       	ror	r18
 2ca:	35 95       	asr	r19
 2cc:	27 95       	ror	r18
 2ce:	96 2f       	mov	r25, r22
 2d0:	99 7f       	andi	r25, 0xF9	; 249
 2d2:	49 2b       	or	r20, r25
 2d4:	24 2b       	or	r18, r20
 2d6:	28 b9       	out	0x08, r18	; 8
 2d8:	9b b1       	in	r25, 0x0b	; 11
 2da:	98 60       	ori	r25, 0x08	; 8
 2dc:	9b b9       	out	0x0b, r25	; 11
 2de:	9b b1       	in	r25, 0x0b	; 11
 2e0:	94 60       	ori	r25, 0x04	; 4
 2e2:	9b b9       	out	0x0b, r25	; 11
 2e4:	25 ed       	ldi	r18, 0xD5	; 213
 2e6:	2a 95       	dec	r18
 2e8:	f1 f7       	brne	.-4      	; 0x2e6 <LCDsendChar+0x7e>
 2ea:	00 00       	nop
 2ec:	9b b1       	in	r25, 0x0b	; 11
 2ee:	9b 7f       	andi	r25, 0xFB	; 251
 2f0:	9b b9       	out	0x0b, r25	; 11
 2f2:	9b b1       	in	r25, 0x0b	; 11
 2f4:	97 7f       	andi	r25, 0xF7	; 247
 2f6:	9b b9       	out	0x0b, r25	; 11
 2f8:	95 ed       	ldi	r25, 0xD5	; 213
 2fa:	9a 95       	dec	r25
 2fc:	f1 f7       	brne	.-4      	; 0x2fa <LCDsendChar+0x92>
 2fe:	00 00       	nop
 300:	65 b1       	in	r22, 0x05	; 5
 302:	20 e1       	ldi	r18, 0x10	; 16
 304:	82 9f       	mul	r24, r18
 306:	c0 01       	movw	r24, r0
 308:	11 24       	eor	r1, r1
 30a:	ac 01       	movw	r20, r24
 30c:	40 74       	andi	r20, 0x40	; 64
 30e:	55 27       	eor	r21, r21
 310:	55 95       	asr	r21
 312:	47 95       	ror	r20
 314:	55 95       	asr	r21
 316:	47 95       	ror	r20
 318:	55 95       	asr	r21
 31a:	47 95       	ror	r20
 31c:	55 95       	asr	r21
 31e:	47 95       	ror	r20
 320:	9c 01       	movw	r18, r24
 322:	20 78       	andi	r18, 0x80	; 128
 324:	33 27       	eor	r19, r19
 326:	02 2e       	mov	r0, r18
 328:	23 2f       	mov	r18, r19
 32a:	00 0c       	add	r0, r0
 32c:	22 1f       	adc	r18, r18
 32e:	33 0b       	sbc	r19, r19
 330:	00 0c       	add	r0, r0
 332:	22 1f       	adc	r18, r18
 334:	33 1f       	adc	r19, r19
 336:	36 2f       	mov	r19, r22
 338:	39 7f       	andi	r19, 0xF9	; 249
 33a:	43 2b       	or	r20, r19
 33c:	24 2b       	or	r18, r20
 33e:	25 b9       	out	0x05, r18	; 5
 340:	48 b1       	in	r20, 0x08	; 8
 342:	9c 01       	movw	r18, r24
 344:	20 71       	andi	r18, 0x10	; 16
 346:	33 27       	eor	r19, r19
 348:	35 95       	asr	r19
 34a:	27 95       	ror	r18
 34c:	35 95       	asr	r19
 34e:	27 95       	ror	r18
 350:	35 95       	asr	r19
 352:	27 95       	ror	r18
 354:	80 72       	andi	r24, 0x20	; 32
 356:	99 27       	eor	r25, r25
 358:	95 95       	asr	r25
 35a:	87 95       	ror	r24
 35c:	95 95       	asr	r25
 35e:	87 95       	ror	r24
 360:	95 95       	asr	r25
 362:	87 95       	ror	r24
 364:	94 2f       	mov	r25, r20
 366:	99 7f       	andi	r25, 0xF9	; 249
 368:	29 2b       	or	r18, r25
 36a:	82 2b       	or	r24, r18
 36c:	88 b9       	out	0x08, r24	; 8
 36e:	8b b1       	in	r24, 0x0b	; 11
 370:	88 60       	ori	r24, 0x08	; 8
 372:	8b b9       	out	0x0b, r24	; 11
 374:	8b b1       	in	r24, 0x0b	; 11
 376:	84 60       	ori	r24, 0x04	; 4
 378:	8b b9       	out	0x0b, r24	; 11
 37a:	85 ed       	ldi	r24, 0xD5	; 213
 37c:	8a 95       	dec	r24
 37e:	f1 f7       	brne	.-4      	; 0x37c <LCDsendChar+0x114>
 380:	00 00       	nop
 382:	8b b1       	in	r24, 0x0b	; 11
 384:	8b 7f       	andi	r24, 0xFB	; 251
 386:	8b b9       	out	0x0b, r24	; 11
 388:	8b b1       	in	r24, 0x0b	; 11
 38a:	87 7f       	andi	r24, 0xF7	; 247
 38c:	8b b9       	out	0x0b, r24	; 11
 38e:	95 ed       	ldi	r25, 0xD5	; 213
 390:	9a 95       	dec	r25
 392:	f1 f7       	brne	.-4      	; 0x390 <LCDsendChar+0x128>
 394:	00 00       	nop
 396:	08 95       	ret

00000398 <LCDsendCommand>:
 398:	65 b1       	in	r22, 0x05	; 5
 39a:	98 2f       	mov	r25, r24
 39c:	90 74       	andi	r25, 0x40	; 64
 39e:	49 2f       	mov	r20, r25
 3a0:	50 e0       	ldi	r21, 0x00	; 0
 3a2:	55 95       	asr	r21
 3a4:	47 95       	ror	r20
 3a6:	55 95       	asr	r21
 3a8:	47 95       	ror	r20
 3aa:	55 95       	asr	r21
 3ac:	47 95       	ror	r20
 3ae:	55 95       	asr	r21
 3b0:	47 95       	ror	r20
 3b2:	98 2f       	mov	r25, r24
 3b4:	90 78       	andi	r25, 0x80	; 128
 3b6:	29 2f       	mov	r18, r25
 3b8:	30 e0       	ldi	r19, 0x00	; 0
 3ba:	02 2e       	mov	r0, r18
 3bc:	23 2f       	mov	r18, r19
 3be:	00 0c       	add	r0, r0
 3c0:	22 1f       	adc	r18, r18
 3c2:	33 0b       	sbc	r19, r19
 3c4:	00 0c       	add	r0, r0
 3c6:	22 1f       	adc	r18, r18
 3c8:	33 1f       	adc	r19, r19
 3ca:	96 2f       	mov	r25, r22
 3cc:	99 7f       	andi	r25, 0xF9	; 249
 3ce:	49 2b       	or	r20, r25
 3d0:	24 2b       	or	r18, r20
 3d2:	25 b9       	out	0x05, r18	; 5
 3d4:	68 b1       	in	r22, 0x08	; 8
 3d6:	98 2f       	mov	r25, r24
 3d8:	90 71       	andi	r25, 0x10	; 16
 3da:	49 2f       	mov	r20, r25
 3dc:	50 e0       	ldi	r21, 0x00	; 0
 3de:	55 95       	asr	r21
 3e0:	47 95       	ror	r20
 3e2:	55 95       	asr	r21
 3e4:	47 95       	ror	r20
 3e6:	55 95       	asr	r21
 3e8:	47 95       	ror	r20
 3ea:	98 2f       	mov	r25, r24
 3ec:	90 72       	andi	r25, 0x20	; 32
 3ee:	29 2f       	mov	r18, r25
 3f0:	30 e0       	ldi	r19, 0x00	; 0
 3f2:	35 95       	asr	r19
 3f4:	27 95       	ror	r18
 3f6:	35 95       	asr	r19
 3f8:	27 95       	ror	r18
 3fa:	35 95       	asr	r19
 3fc:	27 95       	ror	r18
 3fe:	96 2f       	mov	r25, r22
 400:	99 7f       	andi	r25, 0xF9	; 249
 402:	49 2b       	or	r20, r25
 404:	24 2b       	or	r18, r20
 406:	28 b9       	out	0x08, r18	; 8
 408:	9b b1       	in	r25, 0x0b	; 11
 40a:	94 60       	ori	r25, 0x04	; 4
 40c:	9b b9       	out	0x0b, r25	; 11
 40e:	ef e9       	ldi	r30, 0x9F	; 159
 410:	ff e0       	ldi	r31, 0x0F	; 15
 412:	31 97       	sbiw	r30, 0x01	; 1
 414:	f1 f7       	brne	.-4      	; 0x412 <__EEPROM_REGION_LENGTH__+0x12>
 416:	00 c0       	rjmp	.+0      	; 0x418 <__EEPROM_REGION_LENGTH__+0x18>
 418:	00 00       	nop
 41a:	9b b1       	in	r25, 0x0b	; 11
 41c:	9b 7f       	andi	r25, 0xFB	; 251
 41e:	9b b9       	out	0x0b, r25	; 11
 420:	ef e9       	ldi	r30, 0x9F	; 159
 422:	ff e0       	ldi	r31, 0x0F	; 15
 424:	31 97       	sbiw	r30, 0x01	; 1
 426:	f1 f7       	brne	.-4      	; 0x424 <__EEPROM_REGION_LENGTH__+0x24>
 428:	00 c0       	rjmp	.+0      	; 0x42a <__EEPROM_REGION_LENGTH__+0x2a>
 42a:	00 00       	nop
 42c:	65 b1       	in	r22, 0x05	; 5
 42e:	f0 e1       	ldi	r31, 0x10	; 16
 430:	8f 9f       	mul	r24, r31
 432:	c0 01       	movw	r24, r0
 434:	11 24       	eor	r1, r1
 436:	ac 01       	movw	r20, r24
 438:	40 74       	andi	r20, 0x40	; 64
 43a:	55 27       	eor	r21, r21
 43c:	55 95       	asr	r21
 43e:	47 95       	ror	r20
 440:	55 95       	asr	r21
 442:	47 95       	ror	r20
 444:	55 95       	asr	r21
 446:	47 95       	ror	r20
 448:	55 95       	asr	r21
 44a:	47 95       	ror	r20
 44c:	9c 01       	movw	r18, r24
 44e:	20 78       	andi	r18, 0x80	; 128
 450:	33 27       	eor	r19, r19
 452:	02 2e       	mov	r0, r18
 454:	23 2f       	mov	r18, r19
 456:	00 0c       	add	r0, r0
 458:	22 1f       	adc	r18, r18
 45a:	33 0b       	sbc	r19, r19
 45c:	00 0c       	add	r0, r0
 45e:	22 1f       	adc	r18, r18
 460:	33 1f       	adc	r19, r19
 462:	36 2f       	mov	r19, r22
 464:	39 7f       	andi	r19, 0xF9	; 249
 466:	43 2b       	or	r20, r19
 468:	24 2b       	or	r18, r20
 46a:	25 b9       	out	0x05, r18	; 5
 46c:	48 b1       	in	r20, 0x08	; 8
 46e:	9c 01       	movw	r18, r24
 470:	20 71       	andi	r18, 0x10	; 16
 472:	33 27       	eor	r19, r19
 474:	35 95       	asr	r19
 476:	27 95       	ror	r18
 478:	35 95       	asr	r19
 47a:	27 95       	ror	r18
 47c:	35 95       	asr	r19
 47e:	27 95       	ror	r18
 480:	80 72       	andi	r24, 0x20	; 32
 482:	99 27       	eor	r25, r25
 484:	95 95       	asr	r25
 486:	87 95       	ror	r24
 488:	95 95       	asr	r25
 48a:	87 95       	ror	r24
 48c:	95 95       	asr	r25
 48e:	87 95       	ror	r24
 490:	94 2f       	mov	r25, r20
 492:	99 7f       	andi	r25, 0xF9	; 249
 494:	29 2b       	or	r18, r25
 496:	82 2b       	or	r24, r18
 498:	88 b9       	out	0x08, r24	; 8
 49a:	8b b1       	in	r24, 0x0b	; 11
 49c:	84 60       	ori	r24, 0x04	; 4
 49e:	8b b9       	out	0x0b, r24	; 11
 4a0:	8f e9       	ldi	r24, 0x9F	; 159
 4a2:	9f e0       	ldi	r25, 0x0F	; 15
 4a4:	01 97       	sbiw	r24, 0x01	; 1
 4a6:	f1 f7       	brne	.-4      	; 0x4a4 <__EEPROM_REGION_LENGTH__+0xa4>
 4a8:	00 c0       	rjmp	.+0      	; 0x4aa <__EEPROM_REGION_LENGTH__+0xaa>
 4aa:	00 00       	nop
 4ac:	8b b1       	in	r24, 0x0b	; 11
 4ae:	8b 7f       	andi	r24, 0xFB	; 251
 4b0:	8b b9       	out	0x0b, r24	; 11
 4b2:	ef e9       	ldi	r30, 0x9F	; 159
 4b4:	ff e0       	ldi	r31, 0x0F	; 15
 4b6:	31 97       	sbiw	r30, 0x01	; 1
 4b8:	f1 f7       	brne	.-4      	; 0x4b6 <__EEPROM_REGION_LENGTH__+0xb6>
 4ba:	00 c0       	rjmp	.+0      	; 0x4bc <__EEPROM_REGION_LENGTH__+0xbc>
 4bc:	00 00       	nop
 4be:	08 95       	ret

000004c0 <LCDclr>:
 4c0:	81 e0       	ldi	r24, 0x01	; 1
 4c2:	0e 94 cc 01 	call	0x398	; 0x398 <LCDsendCommand>
 4c6:	08 95       	ret

000004c8 <LCDhome>:
 4c8:	82 e0       	ldi	r24, 0x02	; 2
 4ca:	0e 94 cc 01 	call	0x398	; 0x398 <LCDsendCommand>
 4ce:	08 95       	ret

000004d0 <LCDstring>:
 4d0:	0f 93       	push	r16
 4d2:	1f 93       	push	r17
 4d4:	cf 93       	push	r28
 4d6:	df 93       	push	r29
 4d8:	00 97       	sbiw	r24, 0x00	; 0
 4da:	69 f0       	breq	.+26     	; 0x4f6 <LCDstring+0x26>
 4dc:	d6 2f       	mov	r29, r22
 4de:	8c 01       	movw	r16, r24
 4e0:	c0 e0       	ldi	r28, 0x00	; 0
 4e2:	07 c0       	rjmp	.+14     	; 0x4f2 <LCDstring+0x22>
 4e4:	f8 01       	movw	r30, r16
 4e6:	ec 0f       	add	r30, r28
 4e8:	f1 1d       	adc	r31, r1
 4ea:	80 81       	ld	r24, Z
 4ec:	0e 94 34 01 	call	0x268	; 0x268 <LCDsendChar>
 4f0:	cf 5f       	subi	r28, 0xFF	; 255
 4f2:	cd 17       	cp	r28, r29
 4f4:	b8 f3       	brcs	.-18     	; 0x4e4 <LCDstring+0x14>
 4f6:	df 91       	pop	r29
 4f8:	cf 91       	pop	r28
 4fa:	1f 91       	pop	r17
 4fc:	0f 91       	pop	r16
 4fe:	08 95       	ret

00000500 <LCDGotoXY>:
 500:	62 30       	cpi	r22, 0x02	; 2
 502:	31 f0       	breq	.+12     	; 0x510 <LCDGotoXY+0x10>
 504:	63 30       	cpi	r22, 0x03	; 3
 506:	31 f0       	breq	.+12     	; 0x514 <LCDGotoXY+0x14>
 508:	61 30       	cpi	r22, 0x01	; 1
 50a:	29 f4       	brne	.+10     	; 0x516 <LCDGotoXY+0x16>
 50c:	80 5c       	subi	r24, 0xC0	; 192
 50e:	03 c0       	rjmp	.+6      	; 0x516 <LCDGotoXY+0x16>
 510:	8c 5e       	subi	r24, 0xEC	; 236
 512:	01 c0       	rjmp	.+2      	; 0x516 <LCDGotoXY+0x16>
 514:	8c 5a       	subi	r24, 0xAC	; 172
 516:	80 68       	ori	r24, 0x80	; 128
 518:	0e 94 cc 01 	call	0x398	; 0x398 <LCDsendCommand>
 51c:	08 95       	ret

0000051e <LCDdefinechar>:
 51e:	ef 92       	push	r14
 520:	ff 92       	push	r15
 522:	0f 93       	push	r16
 524:	1f 93       	push	r17
 526:	cf 93       	push	r28
 528:	df 93       	push	r29
 52a:	7c 01       	movw	r14, r24
 52c:	86 2f       	mov	r24, r22
 52e:	90 e0       	ldi	r25, 0x00	; 0
 530:	88 0f       	add	r24, r24
 532:	99 1f       	adc	r25, r25
 534:	88 0f       	add	r24, r24
 536:	99 1f       	adc	r25, r25
 538:	88 0f       	add	r24, r24
 53a:	99 1f       	adc	r25, r25
 53c:	80 64       	ori	r24, 0x40	; 64
 53e:	c0 e0       	ldi	r28, 0x00	; 0
 540:	d0 e0       	ldi	r29, 0x00	; 0
 542:	0d c0       	rjmp	.+26     	; 0x55e <LCDdefinechar+0x40>
 544:	f7 01       	movw	r30, r14
 546:	ec 0f       	add	r30, r28
 548:	fd 1f       	adc	r31, r29
 54a:	14 91       	lpm	r17, Z
 54c:	01 e0       	ldi	r16, 0x01	; 1
 54e:	08 0f       	add	r16, r24
 550:	0e 94 cc 01 	call	0x398	; 0x398 <LCDsendCommand>
 554:	81 2f       	mov	r24, r17
 556:	0e 94 34 01 	call	0x268	; 0x268 <LCDsendChar>
 55a:	21 96       	adiw	r28, 0x01	; 1
 55c:	80 2f       	mov	r24, r16
 55e:	c8 30       	cpi	r28, 0x08	; 8
 560:	d1 05       	cpc	r29, r1
 562:	80 f3       	brcs	.-32     	; 0x544 <LCDdefinechar+0x26>
 564:	df 91       	pop	r29
 566:	cf 91       	pop	r28
 568:	1f 91       	pop	r17
 56a:	0f 91       	pop	r16
 56c:	ff 90       	pop	r15
 56e:	ef 90       	pop	r14
 570:	08 95       	ret

00000572 <LCDinit>:
 572:	cf 93       	push	r28
 574:	df 93       	push	r29
 576:	8f e5       	ldi	r24, 0x5F	; 95
 578:	9a ee       	ldi	r25, 0xEA	; 234
 57a:	01 97       	sbiw	r24, 0x01	; 1
 57c:	f1 f7       	brne	.-4      	; 0x57a <LCDinit+0x8>
 57e:	00 c0       	rjmp	.+0      	; 0x580 <LCDinit+0xe>
 580:	00 00       	nop
 582:	85 b1       	in	r24, 0x05	; 5
 584:	89 7f       	andi	r24, 0xF9	; 249
 586:	85 b9       	out	0x05, r24	; 5
 588:	88 b1       	in	r24, 0x08	; 8
 58a:	89 7f       	andi	r24, 0xF9	; 249
 58c:	88 b9       	out	0x08, r24	; 8
 58e:	1b b8       	out	0x0b, r1	; 11
 590:	87 b1       	in	r24, 0x07	; 7
 592:	86 60       	ori	r24, 0x06	; 6
 594:	87 b9       	out	0x07, r24	; 7
 596:	84 b1       	in	r24, 0x04	; 4
 598:	86 60       	ori	r24, 0x06	; 6
 59a:	84 b9       	out	0x04, r24	; 4
 59c:	84 b1       	in	r24, 0x04	; 4
 59e:	86 60       	ori	r24, 0x06	; 6
 5a0:	84 b9       	out	0x04, r24	; 4
 5a2:	87 b1       	in	r24, 0x07	; 7
 5a4:	86 60       	ori	r24, 0x06	; 6
 5a6:	87 b9       	out	0x07, r24	; 7
 5a8:	8a b1       	in	r24, 0x0a	; 10
 5aa:	8e 60       	ori	r24, 0x0E	; 14
 5ac:	8a b9       	out	0x0a, r24	; 10
 5ae:	85 b1       	in	r24, 0x05	; 5
 5b0:	89 7f       	andi	r24, 0xF9	; 249
 5b2:	85 b9       	out	0x05, r24	; 5
 5b4:	88 b1       	in	r24, 0x08	; 8
 5b6:	86 60       	ori	r24, 0x06	; 6
 5b8:	88 b9       	out	0x08, r24	; 8
 5ba:	8b b1       	in	r24, 0x0b	; 11
 5bc:	84 60       	ori	r24, 0x04	; 4
 5be:	8b b9       	out	0x0b, r24	; 11
 5c0:	8f e9       	ldi	r24, 0x9F	; 159
 5c2:	9f e0       	ldi	r25, 0x0F	; 15
 5c4:	01 97       	sbiw	r24, 0x01	; 1
 5c6:	f1 f7       	brne	.-4      	; 0x5c4 <LCDinit+0x52>
 5c8:	00 c0       	rjmp	.+0      	; 0x5ca <LCDinit+0x58>
 5ca:	00 00       	nop
 5cc:	8b b1       	in	r24, 0x0b	; 11
 5ce:	8b 7f       	andi	r24, 0xFB	; 251
 5d0:	8b b9       	out	0x0b, r24	; 11
 5d2:	8f e9       	ldi	r24, 0x9F	; 159
 5d4:	9f e0       	ldi	r25, 0x0F	; 15
 5d6:	01 97       	sbiw	r24, 0x01	; 1
 5d8:	f1 f7       	brne	.-4      	; 0x5d6 <LCDinit+0x64>
 5da:	00 c0       	rjmp	.+0      	; 0x5dc <LCDinit+0x6a>
 5dc:	00 00       	nop
 5de:	85 b1       	in	r24, 0x05	; 5
 5e0:	89 7f       	andi	r24, 0xF9	; 249
 5e2:	85 b9       	out	0x05, r24	; 5
 5e4:	88 b1       	in	r24, 0x08	; 8
 5e6:	86 60       	ori	r24, 0x06	; 6
 5e8:	88 b9       	out	0x08, r24	; 8
 5ea:	8b b1       	in	r24, 0x0b	; 11
 5ec:	84 60       	ori	r24, 0x04	; 4
 5ee:	8b b9       	out	0x0b, r24	; 11
 5f0:	8f e9       	ldi	r24, 0x9F	; 159
 5f2:	9f e0       	ldi	r25, 0x0F	; 15
 5f4:	01 97       	sbiw	r24, 0x01	; 1
 5f6:	f1 f7       	brne	.-4      	; 0x5f4 <LCDinit+0x82>
 5f8:	00 c0       	rjmp	.+0      	; 0x5fa <LCDinit+0x88>
 5fa:	00 00       	nop
 5fc:	8b b1       	in	r24, 0x0b	; 11
 5fe:	8b 7f       	andi	r24, 0xFB	; 251
 600:	8b b9       	out	0x0b, r24	; 11
 602:	8f e9       	ldi	r24, 0x9F	; 159
 604:	9f e0       	ldi	r25, 0x0F	; 15
 606:	01 97       	sbiw	r24, 0x01	; 1
 608:	f1 f7       	brne	.-4      	; 0x606 <LCDinit+0x94>
 60a:	00 c0       	rjmp	.+0      	; 0x60c <LCDinit+0x9a>
 60c:	00 00       	nop
 60e:	85 b1       	in	r24, 0x05	; 5
 610:	89 7f       	andi	r24, 0xF9	; 249
 612:	85 b9       	out	0x05, r24	; 5
 614:	88 b1       	in	r24, 0x08	; 8
 616:	89 7f       	andi	r24, 0xF9	; 249
 618:	84 60       	ori	r24, 0x04	; 4
 61a:	88 b9       	out	0x08, r24	; 8
 61c:	8b b1       	in	r24, 0x0b	; 11
 61e:	84 60       	ori	r24, 0x04	; 4
 620:	8b b9       	out	0x0b, r24	; 11
 622:	8f e9       	ldi	r24, 0x9F	; 159
 624:	9f e0       	ldi	r25, 0x0F	; 15
 626:	01 97       	sbiw	r24, 0x01	; 1
 628:	f1 f7       	brne	.-4      	; 0x626 <LCDinit+0xb4>
 62a:	00 c0       	rjmp	.+0      	; 0x62c <LCDinit+0xba>
 62c:	00 00       	nop
 62e:	8b b1       	in	r24, 0x0b	; 11
 630:	8b 7f       	andi	r24, 0xFB	; 251
 632:	8b b9       	out	0x0b, r24	; 11
 634:	8f e9       	ldi	r24, 0x9F	; 159
 636:	9f e0       	ldi	r25, 0x0F	; 15
 638:	01 97       	sbiw	r24, 0x01	; 1
 63a:	f1 f7       	brne	.-4      	; 0x638 <LCDinit+0xc6>
 63c:	00 c0       	rjmp	.+0      	; 0x63e <LCDinit+0xcc>
 63e:	00 00       	nop
 640:	88 e2       	ldi	r24, 0x28	; 40
 642:	0e 94 cc 01 	call	0x398	; 0x398 <LCDsendCommand>
 646:	8c e0       	ldi	r24, 0x0C	; 12
 648:	0e 94 cc 01 	call	0x398	; 0x398 <LCDsendCommand>
 64c:	60 e0       	ldi	r22, 0x00	; 0
 64e:	c0 e0       	ldi	r28, 0x00	; 0
 650:	0a c0       	rjmp	.+20     	; 0x666 <LCDinit+0xf4>
 652:	d1 e0       	ldi	r29, 0x01	; 1
 654:	d6 0f       	add	r29, r22
 656:	8c 2f       	mov	r24, r28
 658:	90 e0       	ldi	r25, 0x00	; 0
 65a:	88 59       	subi	r24, 0x98	; 152
 65c:	9f 4f       	sbci	r25, 0xFF	; 255
 65e:	0e 94 8f 02 	call	0x51e	; 0x51e <LCDdefinechar>
 662:	c8 5f       	subi	r28, 0xF8	; 248
 664:	6d 2f       	mov	r22, r29
 666:	c0 34       	cpi	r28, 0x40	; 64
 668:	a0 f3       	brcs	.-24     	; 0x652 <LCDinit+0xe0>
 66a:	df 91       	pop	r29
 66c:	cf 91       	pop	r28
 66e:	08 95       	ret

00000670 <LCDescribeDato>:
 670:	ef 92       	push	r14
 672:	ff 92       	push	r15
 674:	0f 93       	push	r16
 676:	1f 93       	push	r17
 678:	cf 93       	push	r28
 67a:	df 93       	push	r29
 67c:	00 d0       	rcall	.+0      	; 0x67e <LCDescribeDato+0xe>
 67e:	00 d0       	rcall	.+0      	; 0x680 <LCDescribeDato+0x10>
 680:	1f 92       	push	r1
 682:	cd b7       	in	r28, 0x3d	; 61
 684:	de b7       	in	r29, 0x3e	; 62
 686:	7b 01       	movw	r14, r22
 688:	fe 01       	movw	r30, r28
 68a:	31 96       	adiw	r30, 0x01	; 1
 68c:	25 e0       	ldi	r18, 0x05	; 5
 68e:	df 01       	movw	r26, r30
 690:	1d 92       	st	X+, r1
 692:	2a 95       	dec	r18
 694:	e9 f7       	brne	.-6      	; 0x690 <LCDescribeDato+0x20>
 696:	24 e0       	ldi	r18, 0x04	; 4
 698:	30 e0       	ldi	r19, 0x00	; 0
 69a:	0f c0       	rjmp	.+30     	; 0x6ba <LCDescribeDato+0x4a>
 69c:	6a e0       	ldi	r22, 0x0A	; 10
 69e:	70 e0       	ldi	r23, 0x00	; 0
 6a0:	0e 94 79 04 	call	0x8f2	; 0x8f2 <__divmodhi4>
 6a4:	e1 e0       	ldi	r30, 0x01	; 1
 6a6:	f0 e0       	ldi	r31, 0x00	; 0
 6a8:	ec 0f       	add	r30, r28
 6aa:	fd 1f       	adc	r31, r29
 6ac:	e2 0f       	add	r30, r18
 6ae:	f3 1f       	adc	r31, r19
 6b0:	80 83       	st	Z, r24
 6b2:	86 2f       	mov	r24, r22
 6b4:	97 2f       	mov	r25, r23
 6b6:	21 50       	subi	r18, 0x01	; 1
 6b8:	31 09       	sbc	r19, r1
 6ba:	00 97       	sbiw	r24, 0x00	; 0
 6bc:	79 f7       	brne	.-34     	; 0x69c <LCDescribeDato+0x2c>
 6be:	bf ef       	ldi	r27, 0xFF	; 255
 6c0:	eb 16       	cp	r14, r27
 6c2:	fb 06       	cpc	r15, r27
 6c4:	81 f4       	brne	.+32     	; 0x6e6 <LCDescribeDato+0x76>
 6c6:	03 c0       	rjmp	.+6      	; 0x6ce <LCDescribeDato+0x5e>
 6c8:	0f 5f       	subi	r16, 0xFF	; 255
 6ca:	1f 4f       	sbci	r17, 0xFF	; 255
 6cc:	02 c0       	rjmp	.+4      	; 0x6d2 <LCDescribeDato+0x62>
 6ce:	00 e0       	ldi	r16, 0x00	; 0
 6d0:	10 e0       	ldi	r17, 0x00	; 0
 6d2:	e1 e0       	ldi	r30, 0x01	; 1
 6d4:	f0 e0       	ldi	r31, 0x00	; 0
 6d6:	ec 0f       	add	r30, r28
 6d8:	fd 1f       	adc	r31, r29
 6da:	e0 0f       	add	r30, r16
 6dc:	f1 1f       	adc	r31, r17
 6de:	20 81       	ld	r18, Z
 6e0:	22 23       	and	r18, r18
 6e2:	91 f3       	breq	.-28     	; 0x6c8 <LCDescribeDato+0x58>
 6e4:	04 c0       	rjmp	.+8      	; 0x6ee <LCDescribeDato+0x7e>
 6e6:	05 e0       	ldi	r16, 0x05	; 5
 6e8:	10 e0       	ldi	r17, 0x00	; 0
 6ea:	0e 19       	sub	r16, r14
 6ec:	1f 09       	sbc	r17, r15
 6ee:	99 23       	and	r25, r25
 6f0:	84 f4       	brge	.+32     	; 0x712 <LCDescribeDato+0xa2>
 6f2:	8d e2       	ldi	r24, 0x2D	; 45
 6f4:	0e 94 34 01 	call	0x268	; 0x268 <LCDsendChar>
 6f8:	0c c0       	rjmp	.+24     	; 0x712 <LCDescribeDato+0xa2>
 6fa:	e1 e0       	ldi	r30, 0x01	; 1
 6fc:	f0 e0       	ldi	r31, 0x00	; 0
 6fe:	ec 0f       	add	r30, r28
 700:	fd 1f       	adc	r31, r29
 702:	e0 0f       	add	r30, r16
 704:	f1 1f       	adc	r31, r17
 706:	80 81       	ld	r24, Z
 708:	80 5d       	subi	r24, 0xD0	; 208
 70a:	0e 94 34 01 	call	0x268	; 0x268 <LCDsendChar>
 70e:	0f 5f       	subi	r16, 0xFF	; 255
 710:	1f 4f       	sbci	r17, 0xFF	; 255
 712:	05 30       	cpi	r16, 0x05	; 5
 714:	11 05       	cpc	r17, r1
 716:	8c f3       	brlt	.-30     	; 0x6fa <LCDescribeDato+0x8a>
 718:	0f 90       	pop	r0
 71a:	0f 90       	pop	r0
 71c:	0f 90       	pop	r0
 71e:	0f 90       	pop	r0
 720:	0f 90       	pop	r0
 722:	df 91       	pop	r29
 724:	cf 91       	pop	r28
 726:	1f 91       	pop	r17
 728:	0f 91       	pop	r16
 72a:	ff 90       	pop	r15
 72c:	ef 90       	pop	r14
 72e:	08 95       	ret

00000730 <LCD_Init>:

void LCD_Init() {
	LCDinit();
 730:	0e 94 b9 02 	call	0x572	; 0x572 <LCDinit>
	LCDclr();
 734:	0e 94 60 02 	call	0x4c0	; 0x4c0 <LCDclr>
	LCDhome();
 738:	0e 94 64 02 	call	0x4c8	; 0x4c8 <LCDhome>
 73c:	08 95       	ret

0000073e <UART_init>:
	while(*cadena !=0x00){				//mientras el último valor de la cadena sea diferente a el caracter nulo
		UART_write(*cadena);			//transmite los caracteres de cadena
		cadena++;						//incrementa la ubicación de los caracteres en cadena
										//para enviar el siguiente caracter de cadena
	}
}
 73e:	8a b1       	in	r24, 0x0a	; 10
 740:	82 60       	ori	r24, 0x02	; 2
 742:	8a b9       	out	0x0a, r24	; 10
 744:	8a b1       	in	r24, 0x0a	; 10
 746:	8e 7f       	andi	r24, 0xFE	; 254
 748:	8a b9       	out	0x0a, r24	; 10
 74a:	10 92 c0 00 	sts	0x00C0, r1	; 0x8000c0 <__TEXT_REGION_LENGTH__+0x7f80c0>
 74e:	88 e9       	ldi	r24, 0x98	; 152
 750:	80 93 c1 00 	sts	0x00C1, r24	; 0x8000c1 <__TEXT_REGION_LENGTH__+0x7f80c1>
 754:	86 e0       	ldi	r24, 0x06	; 6
 756:	80 93 c2 00 	sts	0x00C2, r24	; 0x8000c2 <__TEXT_REGION_LENGTH__+0x7f80c2>
 75a:	10 92 c5 00 	sts	0x00C5, r1	; 0x8000c5 <__TEXT_REGION_LENGTH__+0x7f80c5>
 75e:	87 e6       	ldi	r24, 0x67	; 103
 760:	80 93 c4 00 	sts	0x00C4, r24	; 0x8000c4 <__TEXT_REGION_LENGTH__+0x7f80c4>
 764:	80 e0       	ldi	r24, 0x00	; 0
 766:	91 e0       	ldi	r25, 0x01	; 1
 768:	90 93 5d 01 	sts	0x015D, r25	; 0x80015d <__data_end+0x3>
 76c:	80 93 5c 01 	sts	0x015C, r24	; 0x80015c <__data_end+0x2>
 770:	08 95       	ret

00000772 <UART_write>:
 772:	90 91 c0 00 	lds	r25, 0x00C0	; 0x8000c0 <__TEXT_REGION_LENGTH__+0x7f80c0>
 776:	95 ff       	sbrs	r25, 5
 778:	fc cf       	rjmp	.-8      	; 0x772 <UART_write>
 77a:	80 93 c6 00 	sts	0x00C6, r24	; 0x8000c6 <__TEXT_REGION_LENGTH__+0x7f80c6>
 77e:	08 95       	ret

00000780 <USART_printCHAR>:
 780:	0e 94 b9 03 	call	0x772	; 0x772 <UART_write>
 784:	80 e0       	ldi	r24, 0x00	; 0
 786:	90 e0       	ldi	r25, 0x00	; 0
 788:	08 95       	ret

0000078a <main>:
#include "lcd.h"
#include "utils.h"


int main(void)
{
 78a:	cf 93       	push	r28
 78c:	df 93       	push	r29
 78e:	00 d0       	rcall	.+0      	; 0x790 <main+0x6>
 790:	00 d0       	rcall	.+0      	; 0x792 <main+0x8>
 792:	cd b7       	in	r28, 0x3d	; 61
 794:	de b7       	in	r29, 0x3e	; 62
	uint8_t temperatura_int;
	uint8_t temperatura_dec;
	uint8_t humedad_int;
	uint8_t humedad_dec;
	
	DHT11_init();
 796:	0e 94 73 00 	call	0xe6	; 0xe6 <DHT11_init>
	UART_init();
 79a:	0e 94 9f 03 	call	0x73e	; 0x73e <UART_init>
	#else
		//round up by default
		__ticks_dc = (uint32_t)(ceil(fabs(__tmp)));
	#endif

	__builtin_avr_delay_cycles(__ticks_dc);
 79e:	8f e3       	ldi	r24, 0x3F	; 63
 7a0:	9c e9       	ldi	r25, 0x9C	; 156
 7a2:	01 97       	sbiw	r24, 0x01	; 1
 7a4:	f1 f7       	brne	.-4      	; 0x7a2 <main+0x18>
 7a6:	00 c0       	rjmp	.+0      	; 0x7a8 <main+0x1e>
 7a8:	00 00       	nop
	
	_delay_ms(10);
	LCD_Init();
 7aa:	0e 94 98 03 	call	0x730	; 0x730 <LCD_Init>
 7ae:	9f ef       	ldi	r25, 0xFF	; 255
 7b0:	21 ee       	ldi	r18, 0xE1	; 225
 7b2:	84 e0       	ldi	r24, 0x04	; 4
 7b4:	91 50       	subi	r25, 0x01	; 1
 7b6:	20 40       	sbci	r18, 0x00	; 0
 7b8:	80 40       	sbci	r24, 0x00	; 0
 7ba:	e1 f7       	brne	.-8      	; 0x7b4 <main+0x2a>
 7bc:	00 c0       	rjmp	.+0      	; 0x7be <main+0x34>
 7be:	00 00       	nop
	_delay_ms(100);
	
	while (1) {
		uint8_t status = DHT11_read(&temperatura_int, &temperatura_dec ,&humedad_int, &humedad_dec );
 7c0:	9e 01       	movw	r18, r28
 7c2:	2c 5f       	subi	r18, 0xFC	; 252
 7c4:	3f 4f       	sbci	r19, 0xFF	; 255
 7c6:	ae 01       	movw	r20, r28
 7c8:	4d 5f       	subi	r20, 0xFD	; 253
 7ca:	5f 4f       	sbci	r21, 0xFF	; 255
 7cc:	be 01       	movw	r22, r28
 7ce:	6e 5f       	subi	r22, 0xFE	; 254
 7d0:	7f 4f       	sbci	r23, 0xFF	; 255
 7d2:	ce 01       	movw	r24, r28
 7d4:	01 96       	adiw	r24, 0x01	; 1
 7d6:	0e 94 7a 00 	call	0xf4	; 0xf4 <DHT11_read>
		if (status) {
 7da:	88 23       	and	r24, r24
 7dc:	09 f4       	brne	.+2      	; 0x7e0 <main+0x56>
 7de:	67 c0       	rjmp	.+206    	; 0x8ae <__DATA_REGION_LENGTH__+0xae>
			LCDclr();
 7e0:	0e 94 60 02 	call	0x4c0	; 0x4c0 <LCDclr>
			printf("Temperatura = %d.%d\n\r", temperatura_int, temperatura_dec);
 7e4:	8a 81       	ldd	r24, Y+2	; 0x02
 7e6:	1f 92       	push	r1
 7e8:	8f 93       	push	r24
 7ea:	89 81       	ldd	r24, Y+1	; 0x01
 7ec:	1f 92       	push	r1
 7ee:	8f 93       	push	r24
 7f0:	8e e0       	ldi	r24, 0x0E	; 14
 7f2:	91 e0       	ldi	r25, 0x01	; 1
 7f4:	9f 93       	push	r25
 7f6:	8f 93       	push	r24
 7f8:	0e 94 a1 04 	call	0x942	; 0x942 <printf>
			printf("Humedad = %d.%d\n\r", humedad_int, humedad_dec);
 7fc:	8c 81       	ldd	r24, Y+4	; 0x04
 7fe:	1f 92       	push	r1
 800:	8f 93       	push	r24
 802:	8b 81       	ldd	r24, Y+3	; 0x03
 804:	1f 92       	push	r1
 806:	8f 93       	push	r24
 808:	84 e2       	ldi	r24, 0x24	; 36
 80a:	91 e0       	ldi	r25, 0x01	; 1
 80c:	9f 93       	push	r25
 80e:	8f 93       	push	r24
 810:	0e 94 a1 04 	call	0x942	; 0x942 <printf>
			
			LCDGotoXY(0,0);
 814:	60 e0       	ldi	r22, 0x00	; 0
 816:	80 e0       	ldi	r24, 0x00	; 0
 818:	0e 94 80 02 	call	0x500	; 0x500 <LCDGotoXY>
			LCDstring("Temp: ",strlen("Temp: "));
 81c:	66 e0       	ldi	r22, 0x06	; 6
 81e:	86 e3       	ldi	r24, 0x36	; 54
 820:	91 e0       	ldi	r25, 0x01	; 1
 822:	0e 94 68 02 	call	0x4d0	; 0x4d0 <LCDstring>
			LCDescribeDato(temperatura_int,2);
 826:	89 81       	ldd	r24, Y+1	; 0x01
 828:	62 e0       	ldi	r22, 0x02	; 2
 82a:	70 e0       	ldi	r23, 0x00	; 0
 82c:	90 e0       	ldi	r25, 0x00	; 0
 82e:	0e 94 38 03 	call	0x670	; 0x670 <LCDescribeDato>
			LCDstring(".",strlen("."));
 832:	61 e0       	ldi	r22, 0x01	; 1
 834:	8d e3       	ldi	r24, 0x3D	; 61
 836:	91 e0       	ldi	r25, 0x01	; 1
 838:	0e 94 68 02 	call	0x4d0	; 0x4d0 <LCDstring>
			LCDescribeDato(temperatura_dec,2);
 83c:	8a 81       	ldd	r24, Y+2	; 0x02
 83e:	62 e0       	ldi	r22, 0x02	; 2
 840:	70 e0       	ldi	r23, 0x00	; 0
 842:	90 e0       	ldi	r25, 0x00	; 0
 844:	0e 94 38 03 	call	0x670	; 0x670 <LCDescribeDato>
			LCDstring(" C",strlen(" C"));
 848:	62 e0       	ldi	r22, 0x02	; 2
 84a:	8f e3       	ldi	r24, 0x3F	; 63
 84c:	91 e0       	ldi	r25, 0x01	; 1
 84e:	0e 94 68 02 	call	0x4d0	; 0x4d0 <LCDstring>
			LCDGotoXY(0,1);
 852:	61 e0       	ldi	r22, 0x01	; 1
 854:	80 e0       	ldi	r24, 0x00	; 0
 856:	0e 94 80 02 	call	0x500	; 0x500 <LCDGotoXY>
			LCDstring("Hum: ",strlen("Hum: "));
 85a:	65 e0       	ldi	r22, 0x05	; 5
 85c:	82 e4       	ldi	r24, 0x42	; 66
 85e:	91 e0       	ldi	r25, 0x01	; 1
 860:	0e 94 68 02 	call	0x4d0	; 0x4d0 <LCDstring>
			LCDescribeDato(humedad_int,2);
 864:	8b 81       	ldd	r24, Y+3	; 0x03
 866:	62 e0       	ldi	r22, 0x02	; 2
 868:	70 e0       	ldi	r23, 0x00	; 0
 86a:	90 e0       	ldi	r25, 0x00	; 0
 86c:	0e 94 38 03 	call	0x670	; 0x670 <LCDescribeDato>
			LCDstring(".",strlen("."));
 870:	61 e0       	ldi	r22, 0x01	; 1
 872:	8d e3       	ldi	r24, 0x3D	; 61
 874:	91 e0       	ldi	r25, 0x01	; 1
 876:	0e 94 68 02 	call	0x4d0	; 0x4d0 <LCDstring>
			LCDescribeDato(humedad_dec,2);
 87a:	8c 81       	ldd	r24, Y+4	; 0x04
 87c:	62 e0       	ldi	r22, 0x02	; 2
 87e:	70 e0       	ldi	r23, 0x00	; 0
 880:	90 e0       	ldi	r25, 0x00	; 0
 882:	0e 94 38 03 	call	0x670	; 0x670 <LCDescribeDato>
			LCDstring(" %",strlen(" %"));
 886:	62 e0       	ldi	r22, 0x02	; 2
 888:	88 e4       	ldi	r24, 0x48	; 72
 88a:	91 e0       	ldi	r25, 0x01	; 1
 88c:	0e 94 68 02 	call	0x4d0	; 0x4d0 <LCDstring>
 890:	9f ef       	ldi	r25, 0xFF	; 255
 892:	21 ee       	ldi	r18, 0xE1	; 225
 894:	84 e0       	ldi	r24, 0x04	; 4
 896:	91 50       	subi	r25, 0x01	; 1
 898:	20 40       	sbci	r18, 0x00	; 0
 89a:	80 40       	sbci	r24, 0x00	; 0
 89c:	e1 f7       	brne	.-8      	; 0x896 <__DATA_REGION_LENGTH__+0x96>
 89e:	00 c0       	rjmp	.+0      	; 0x8a0 <__DATA_REGION_LENGTH__+0xa0>
 8a0:	00 00       	nop
 8a2:	0f b6       	in	r0, 0x3f	; 63
 8a4:	f8 94       	cli
 8a6:	de bf       	out	0x3e, r29	; 62
 8a8:	0f be       	out	0x3f, r0	; 63
 8aa:	cd bf       	out	0x3d, r28	; 61
 8ac:	18 c0       	rjmp	.+48     	; 0x8de <__DATA_REGION_LENGTH__+0xde>
			/*sprintf(temperatura_int, "%d", temperatura_int);
			sprintf(humedad_int, "%d", humedad_int);
			Sol_error();
			escribir(temperatura_int, humedad_int);*/
		} else {
			printf("ERROR\n\r");
 8ae:	8b e4       	ldi	r24, 0x4B	; 75
 8b0:	91 e0       	ldi	r25, 0x01	; 1
 8b2:	9f 93       	push	r25
 8b4:	8f 93       	push	r24
 8b6:	0e 94 a1 04 	call	0x942	; 0x942 <printf>
			LCDclr();
 8ba:	0e 94 60 02 	call	0x4c0	; 0x4c0 <LCDclr>
 8be:	9f ef       	ldi	r25, 0xFF	; 255
 8c0:	21 ee       	ldi	r18, 0xE1	; 225
 8c2:	84 e0       	ldi	r24, 0x04	; 4
 8c4:	91 50       	subi	r25, 0x01	; 1
 8c6:	20 40       	sbci	r18, 0x00	; 0
 8c8:	80 40       	sbci	r24, 0x00	; 0
 8ca:	e1 f7       	brne	.-8      	; 0x8c4 <__DATA_REGION_LENGTH__+0xc4>
 8cc:	00 c0       	rjmp	.+0      	; 0x8ce <__DATA_REGION_LENGTH__+0xce>
 8ce:	00 00       	nop
			_delay_ms(100);
			LCDstring("ERROR", 5);
 8d0:	65 e0       	ldi	r22, 0x05	; 5
 8d2:	83 e5       	ldi	r24, 0x53	; 83
 8d4:	91 e0       	ldi	r25, 0x01	; 1
 8d6:	0e 94 68 02 	call	0x4d0	; 0x4d0 <LCDstring>
 8da:	0f 90       	pop	r0
 8dc:	0f 90       	pop	r0
 8de:	9f ef       	ldi	r25, 0xFF	; 255
 8e0:	27 ea       	ldi	r18, 0xA7	; 167
 8e2:	81 e6       	ldi	r24, 0x61	; 97
 8e4:	91 50       	subi	r25, 0x01	; 1
 8e6:	20 40       	sbci	r18, 0x00	; 0
 8e8:	80 40       	sbci	r24, 0x00	; 0
 8ea:	e1 f7       	brne	.-8      	; 0x8e4 <__DATA_REGION_LENGTH__+0xe4>
 8ec:	00 c0       	rjmp	.+0      	; 0x8ee <__DATA_REGION_LENGTH__+0xee>
 8ee:	00 00       	nop
 8f0:	67 cf       	rjmp	.-306    	; 0x7c0 <main+0x36>

000008f2 <__divmodhi4>:
 8f2:	97 fb       	bst	r25, 7
 8f4:	07 2e       	mov	r0, r23
 8f6:	16 f4       	brtc	.+4      	; 0x8fc <__divmodhi4+0xa>
 8f8:	00 94       	com	r0
 8fa:	07 d0       	rcall	.+14     	; 0x90a <__divmodhi4_neg1>
 8fc:	77 fd       	sbrc	r23, 7
 8fe:	09 d0       	rcall	.+18     	; 0x912 <__divmodhi4_neg2>
 900:	0e 94 8d 04 	call	0x91a	; 0x91a <__udivmodhi4>
 904:	07 fc       	sbrc	r0, 7
 906:	05 d0       	rcall	.+10     	; 0x912 <__divmodhi4_neg2>
 908:	3e f4       	brtc	.+14     	; 0x918 <__divmodhi4_exit>

0000090a <__divmodhi4_neg1>:
 90a:	90 95       	com	r25
 90c:	81 95       	neg	r24
 90e:	9f 4f       	sbci	r25, 0xFF	; 255
 910:	08 95       	ret

00000912 <__divmodhi4_neg2>:
 912:	70 95       	com	r23
 914:	61 95       	neg	r22
 916:	7f 4f       	sbci	r23, 0xFF	; 255

00000918 <__divmodhi4_exit>:
 918:	08 95       	ret

0000091a <__udivmodhi4>:
 91a:	aa 1b       	sub	r26, r26
 91c:	bb 1b       	sub	r27, r27
 91e:	51 e1       	ldi	r21, 0x11	; 17
 920:	07 c0       	rjmp	.+14     	; 0x930 <__udivmodhi4_ep>

00000922 <__udivmodhi4_loop>:
 922:	aa 1f       	adc	r26, r26
 924:	bb 1f       	adc	r27, r27
 926:	a6 17       	cp	r26, r22
 928:	b7 07       	cpc	r27, r23
 92a:	10 f0       	brcs	.+4      	; 0x930 <__udivmodhi4_ep>
 92c:	a6 1b       	sub	r26, r22
 92e:	b7 0b       	sbc	r27, r23

00000930 <__udivmodhi4_ep>:
 930:	88 1f       	adc	r24, r24
 932:	99 1f       	adc	r25, r25
 934:	5a 95       	dec	r21
 936:	a9 f7       	brne	.-22     	; 0x922 <__udivmodhi4_loop>
 938:	80 95       	com	r24
 93a:	90 95       	com	r25
 93c:	bc 01       	movw	r22, r24
 93e:	cd 01       	movw	r24, r26
 940:	08 95       	ret

00000942 <printf>:
 942:	a0 e0       	ldi	r26, 0x00	; 0
 944:	b0 e0       	ldi	r27, 0x00	; 0
 946:	e7 ea       	ldi	r30, 0xA7	; 167
 948:	f4 e0       	ldi	r31, 0x04	; 4
 94a:	0c 94 58 07 	jmp	0xeb0	; 0xeb0 <__prologue_saves__+0x20>
 94e:	ae 01       	movw	r20, r28
 950:	4b 5f       	subi	r20, 0xFB	; 251
 952:	5f 4f       	sbci	r21, 0xFF	; 255
 954:	fa 01       	movw	r30, r20
 956:	61 91       	ld	r22, Z+
 958:	71 91       	ld	r23, Z+
 95a:	af 01       	movw	r20, r30
 95c:	80 91 5c 01 	lds	r24, 0x015C	; 0x80015c <__data_end+0x2>
 960:	90 91 5d 01 	lds	r25, 0x015D	; 0x80015d <__data_end+0x3>
 964:	0e 94 b7 04 	call	0x96e	; 0x96e <vfprintf>
 968:	e2 e0       	ldi	r30, 0x02	; 2
 96a:	0c 94 74 07 	jmp	0xee8	; 0xee8 <__epilogue_restores__+0x20>

0000096e <vfprintf>:
 96e:	ab e0       	ldi	r26, 0x0B	; 11
 970:	b0 e0       	ldi	r27, 0x00	; 0
 972:	ed eb       	ldi	r30, 0xBD	; 189
 974:	f4 e0       	ldi	r31, 0x04	; 4
 976:	0c 94 48 07 	jmp	0xe90	; 0xe90 <__prologue_saves__>
 97a:	6c 01       	movw	r12, r24
 97c:	7b 01       	movw	r14, r22
 97e:	8a 01       	movw	r16, r20
 980:	fc 01       	movw	r30, r24
 982:	17 82       	std	Z+7, r1	; 0x07
 984:	16 82       	std	Z+6, r1	; 0x06
 986:	83 81       	ldd	r24, Z+3	; 0x03
 988:	81 ff       	sbrs	r24, 1
 98a:	cc c1       	rjmp	.+920    	; 0xd24 <vfprintf+0x3b6>
 98c:	ce 01       	movw	r24, r28
 98e:	01 96       	adiw	r24, 0x01	; 1
 990:	3c 01       	movw	r6, r24
 992:	f6 01       	movw	r30, r12
 994:	93 81       	ldd	r25, Z+3	; 0x03
 996:	f7 01       	movw	r30, r14
 998:	93 fd       	sbrc	r25, 3
 99a:	85 91       	lpm	r24, Z+
 99c:	93 ff       	sbrs	r25, 3
 99e:	81 91       	ld	r24, Z+
 9a0:	7f 01       	movw	r14, r30
 9a2:	88 23       	and	r24, r24
 9a4:	09 f4       	brne	.+2      	; 0x9a8 <vfprintf+0x3a>
 9a6:	ba c1       	rjmp	.+884    	; 0xd1c <vfprintf+0x3ae>
 9a8:	85 32       	cpi	r24, 0x25	; 37
 9aa:	39 f4       	brne	.+14     	; 0x9ba <vfprintf+0x4c>
 9ac:	93 fd       	sbrc	r25, 3
 9ae:	85 91       	lpm	r24, Z+
 9b0:	93 ff       	sbrs	r25, 3
 9b2:	81 91       	ld	r24, Z+
 9b4:	7f 01       	movw	r14, r30
 9b6:	85 32       	cpi	r24, 0x25	; 37
 9b8:	29 f4       	brne	.+10     	; 0x9c4 <vfprintf+0x56>
 9ba:	b6 01       	movw	r22, r12
 9bc:	90 e0       	ldi	r25, 0x00	; 0
 9be:	0e 94 ae 06 	call	0xd5c	; 0xd5c <fputc>
 9c2:	e7 cf       	rjmp	.-50     	; 0x992 <vfprintf+0x24>
 9c4:	91 2c       	mov	r9, r1
 9c6:	21 2c       	mov	r2, r1
 9c8:	31 2c       	mov	r3, r1
 9ca:	ff e1       	ldi	r31, 0x1F	; 31
 9cc:	f3 15       	cp	r31, r3
 9ce:	d8 f0       	brcs	.+54     	; 0xa06 <vfprintf+0x98>
 9d0:	8b 32       	cpi	r24, 0x2B	; 43
 9d2:	79 f0       	breq	.+30     	; 0x9f2 <vfprintf+0x84>
 9d4:	38 f4       	brcc	.+14     	; 0x9e4 <vfprintf+0x76>
 9d6:	80 32       	cpi	r24, 0x20	; 32
 9d8:	79 f0       	breq	.+30     	; 0x9f8 <vfprintf+0x8a>
 9da:	83 32       	cpi	r24, 0x23	; 35
 9dc:	a1 f4       	brne	.+40     	; 0xa06 <vfprintf+0x98>
 9de:	23 2d       	mov	r18, r3
 9e0:	20 61       	ori	r18, 0x10	; 16
 9e2:	1d c0       	rjmp	.+58     	; 0xa1e <vfprintf+0xb0>
 9e4:	8d 32       	cpi	r24, 0x2D	; 45
 9e6:	61 f0       	breq	.+24     	; 0xa00 <vfprintf+0x92>
 9e8:	80 33       	cpi	r24, 0x30	; 48
 9ea:	69 f4       	brne	.+26     	; 0xa06 <vfprintf+0x98>
 9ec:	23 2d       	mov	r18, r3
 9ee:	21 60       	ori	r18, 0x01	; 1
 9f0:	16 c0       	rjmp	.+44     	; 0xa1e <vfprintf+0xb0>
 9f2:	83 2d       	mov	r24, r3
 9f4:	82 60       	ori	r24, 0x02	; 2
 9f6:	38 2e       	mov	r3, r24
 9f8:	e3 2d       	mov	r30, r3
 9fa:	e4 60       	ori	r30, 0x04	; 4
 9fc:	3e 2e       	mov	r3, r30
 9fe:	2a c0       	rjmp	.+84     	; 0xa54 <vfprintf+0xe6>
 a00:	f3 2d       	mov	r31, r3
 a02:	f8 60       	ori	r31, 0x08	; 8
 a04:	1d c0       	rjmp	.+58     	; 0xa40 <vfprintf+0xd2>
 a06:	37 fc       	sbrc	r3, 7
 a08:	2d c0       	rjmp	.+90     	; 0xa64 <vfprintf+0xf6>
 a0a:	20 ed       	ldi	r18, 0xD0	; 208
 a0c:	28 0f       	add	r18, r24
 a0e:	2a 30       	cpi	r18, 0x0A	; 10
 a10:	40 f0       	brcs	.+16     	; 0xa22 <vfprintf+0xb4>
 a12:	8e 32       	cpi	r24, 0x2E	; 46
 a14:	b9 f4       	brne	.+46     	; 0xa44 <vfprintf+0xd6>
 a16:	36 fc       	sbrc	r3, 6
 a18:	81 c1       	rjmp	.+770    	; 0xd1c <vfprintf+0x3ae>
 a1a:	23 2d       	mov	r18, r3
 a1c:	20 64       	ori	r18, 0x40	; 64
 a1e:	32 2e       	mov	r3, r18
 a20:	19 c0       	rjmp	.+50     	; 0xa54 <vfprintf+0xe6>
 a22:	36 fe       	sbrs	r3, 6
 a24:	06 c0       	rjmp	.+12     	; 0xa32 <vfprintf+0xc4>
 a26:	8a e0       	ldi	r24, 0x0A	; 10
 a28:	98 9e       	mul	r9, r24
 a2a:	20 0d       	add	r18, r0
 a2c:	11 24       	eor	r1, r1
 a2e:	92 2e       	mov	r9, r18
 a30:	11 c0       	rjmp	.+34     	; 0xa54 <vfprintf+0xe6>
 a32:	ea e0       	ldi	r30, 0x0A	; 10
 a34:	2e 9e       	mul	r2, r30
 a36:	20 0d       	add	r18, r0
 a38:	11 24       	eor	r1, r1
 a3a:	22 2e       	mov	r2, r18
 a3c:	f3 2d       	mov	r31, r3
 a3e:	f0 62       	ori	r31, 0x20	; 32
 a40:	3f 2e       	mov	r3, r31
 a42:	08 c0       	rjmp	.+16     	; 0xa54 <vfprintf+0xe6>
 a44:	8c 36       	cpi	r24, 0x6C	; 108
 a46:	21 f4       	brne	.+8      	; 0xa50 <vfprintf+0xe2>
 a48:	83 2d       	mov	r24, r3
 a4a:	80 68       	ori	r24, 0x80	; 128
 a4c:	38 2e       	mov	r3, r24
 a4e:	02 c0       	rjmp	.+4      	; 0xa54 <vfprintf+0xe6>
 a50:	88 36       	cpi	r24, 0x68	; 104
 a52:	41 f4       	brne	.+16     	; 0xa64 <vfprintf+0xf6>
 a54:	f7 01       	movw	r30, r14
 a56:	93 fd       	sbrc	r25, 3
 a58:	85 91       	lpm	r24, Z+
 a5a:	93 ff       	sbrs	r25, 3
 a5c:	81 91       	ld	r24, Z+
 a5e:	7f 01       	movw	r14, r30
 a60:	81 11       	cpse	r24, r1
 a62:	b3 cf       	rjmp	.-154    	; 0x9ca <vfprintf+0x5c>
 a64:	98 2f       	mov	r25, r24
 a66:	9f 7d       	andi	r25, 0xDF	; 223
 a68:	95 54       	subi	r25, 0x45	; 69
 a6a:	93 30       	cpi	r25, 0x03	; 3
 a6c:	28 f4       	brcc	.+10     	; 0xa78 <vfprintf+0x10a>
 a6e:	0c 5f       	subi	r16, 0xFC	; 252
 a70:	1f 4f       	sbci	r17, 0xFF	; 255
 a72:	9f e3       	ldi	r25, 0x3F	; 63
 a74:	99 83       	std	Y+1, r25	; 0x01
 a76:	0d c0       	rjmp	.+26     	; 0xa92 <vfprintf+0x124>
 a78:	83 36       	cpi	r24, 0x63	; 99
 a7a:	31 f0       	breq	.+12     	; 0xa88 <vfprintf+0x11a>
 a7c:	83 37       	cpi	r24, 0x73	; 115
 a7e:	71 f0       	breq	.+28     	; 0xa9c <vfprintf+0x12e>
 a80:	83 35       	cpi	r24, 0x53	; 83
 a82:	09 f0       	breq	.+2      	; 0xa86 <vfprintf+0x118>
 a84:	59 c0       	rjmp	.+178    	; 0xb38 <vfprintf+0x1ca>
 a86:	21 c0       	rjmp	.+66     	; 0xaca <vfprintf+0x15c>
 a88:	f8 01       	movw	r30, r16
 a8a:	80 81       	ld	r24, Z
 a8c:	89 83       	std	Y+1, r24	; 0x01
 a8e:	0e 5f       	subi	r16, 0xFE	; 254
 a90:	1f 4f       	sbci	r17, 0xFF	; 255
 a92:	88 24       	eor	r8, r8
 a94:	83 94       	inc	r8
 a96:	91 2c       	mov	r9, r1
 a98:	53 01       	movw	r10, r6
 a9a:	13 c0       	rjmp	.+38     	; 0xac2 <vfprintf+0x154>
 a9c:	28 01       	movw	r4, r16
 a9e:	f2 e0       	ldi	r31, 0x02	; 2
 aa0:	4f 0e       	add	r4, r31
 aa2:	51 1c       	adc	r5, r1
 aa4:	f8 01       	movw	r30, r16
 aa6:	a0 80       	ld	r10, Z
 aa8:	b1 80       	ldd	r11, Z+1	; 0x01
 aaa:	36 fe       	sbrs	r3, 6
 aac:	03 c0       	rjmp	.+6      	; 0xab4 <vfprintf+0x146>
 aae:	69 2d       	mov	r22, r9
 ab0:	70 e0       	ldi	r23, 0x00	; 0
 ab2:	02 c0       	rjmp	.+4      	; 0xab8 <vfprintf+0x14a>
 ab4:	6f ef       	ldi	r22, 0xFF	; 255
 ab6:	7f ef       	ldi	r23, 0xFF	; 255
 ab8:	c5 01       	movw	r24, r10
 aba:	0e 94 a3 06 	call	0xd46	; 0xd46 <strnlen>
 abe:	4c 01       	movw	r8, r24
 ac0:	82 01       	movw	r16, r4
 ac2:	f3 2d       	mov	r31, r3
 ac4:	ff 77       	andi	r31, 0x7F	; 127
 ac6:	3f 2e       	mov	r3, r31
 ac8:	16 c0       	rjmp	.+44     	; 0xaf6 <vfprintf+0x188>
 aca:	28 01       	movw	r4, r16
 acc:	22 e0       	ldi	r18, 0x02	; 2
 ace:	42 0e       	add	r4, r18
 ad0:	51 1c       	adc	r5, r1
 ad2:	f8 01       	movw	r30, r16
 ad4:	a0 80       	ld	r10, Z
 ad6:	b1 80       	ldd	r11, Z+1	; 0x01
 ad8:	36 fe       	sbrs	r3, 6
 ada:	03 c0       	rjmp	.+6      	; 0xae2 <vfprintf+0x174>
 adc:	69 2d       	mov	r22, r9
 ade:	70 e0       	ldi	r23, 0x00	; 0
 ae0:	02 c0       	rjmp	.+4      	; 0xae6 <vfprintf+0x178>
 ae2:	6f ef       	ldi	r22, 0xFF	; 255
 ae4:	7f ef       	ldi	r23, 0xFF	; 255
 ae6:	c5 01       	movw	r24, r10
 ae8:	0e 94 98 06 	call	0xd30	; 0xd30 <strnlen_P>
 aec:	4c 01       	movw	r8, r24
 aee:	f3 2d       	mov	r31, r3
 af0:	f0 68       	ori	r31, 0x80	; 128
 af2:	3f 2e       	mov	r3, r31
 af4:	82 01       	movw	r16, r4
 af6:	33 fc       	sbrc	r3, 3
 af8:	1b c0       	rjmp	.+54     	; 0xb30 <vfprintf+0x1c2>
 afa:	82 2d       	mov	r24, r2
 afc:	90 e0       	ldi	r25, 0x00	; 0
 afe:	88 16       	cp	r8, r24
 b00:	99 06       	cpc	r9, r25
 b02:	b0 f4       	brcc	.+44     	; 0xb30 <vfprintf+0x1c2>
 b04:	b6 01       	movw	r22, r12
 b06:	80 e2       	ldi	r24, 0x20	; 32
 b08:	90 e0       	ldi	r25, 0x00	; 0
 b0a:	0e 94 ae 06 	call	0xd5c	; 0xd5c <fputc>
 b0e:	2a 94       	dec	r2
 b10:	f4 cf       	rjmp	.-24     	; 0xafa <vfprintf+0x18c>
 b12:	f5 01       	movw	r30, r10
 b14:	37 fc       	sbrc	r3, 7
 b16:	85 91       	lpm	r24, Z+
 b18:	37 fe       	sbrs	r3, 7
 b1a:	81 91       	ld	r24, Z+
 b1c:	5f 01       	movw	r10, r30
 b1e:	b6 01       	movw	r22, r12
 b20:	90 e0       	ldi	r25, 0x00	; 0
 b22:	0e 94 ae 06 	call	0xd5c	; 0xd5c <fputc>
 b26:	21 10       	cpse	r2, r1
 b28:	2a 94       	dec	r2
 b2a:	21 e0       	ldi	r18, 0x01	; 1
 b2c:	82 1a       	sub	r8, r18
 b2e:	91 08       	sbc	r9, r1
 b30:	81 14       	cp	r8, r1
 b32:	91 04       	cpc	r9, r1
 b34:	71 f7       	brne	.-36     	; 0xb12 <vfprintf+0x1a4>
 b36:	e8 c0       	rjmp	.+464    	; 0xd08 <vfprintf+0x39a>
 b38:	84 36       	cpi	r24, 0x64	; 100
 b3a:	11 f0       	breq	.+4      	; 0xb40 <vfprintf+0x1d2>
 b3c:	89 36       	cpi	r24, 0x69	; 105
 b3e:	41 f5       	brne	.+80     	; 0xb90 <vfprintf+0x222>
 b40:	f8 01       	movw	r30, r16
 b42:	37 fe       	sbrs	r3, 7
 b44:	07 c0       	rjmp	.+14     	; 0xb54 <vfprintf+0x1e6>
 b46:	60 81       	ld	r22, Z
 b48:	71 81       	ldd	r23, Z+1	; 0x01
 b4a:	82 81       	ldd	r24, Z+2	; 0x02
 b4c:	93 81       	ldd	r25, Z+3	; 0x03
 b4e:	0c 5f       	subi	r16, 0xFC	; 252
 b50:	1f 4f       	sbci	r17, 0xFF	; 255
 b52:	08 c0       	rjmp	.+16     	; 0xb64 <vfprintf+0x1f6>
 b54:	60 81       	ld	r22, Z
 b56:	71 81       	ldd	r23, Z+1	; 0x01
 b58:	07 2e       	mov	r0, r23
 b5a:	00 0c       	add	r0, r0
 b5c:	88 0b       	sbc	r24, r24
 b5e:	99 0b       	sbc	r25, r25
 b60:	0e 5f       	subi	r16, 0xFE	; 254
 b62:	1f 4f       	sbci	r17, 0xFF	; 255
 b64:	f3 2d       	mov	r31, r3
 b66:	ff 76       	andi	r31, 0x6F	; 111
 b68:	3f 2e       	mov	r3, r31
 b6a:	97 ff       	sbrs	r25, 7
 b6c:	09 c0       	rjmp	.+18     	; 0xb80 <vfprintf+0x212>
 b6e:	90 95       	com	r25
 b70:	80 95       	com	r24
 b72:	70 95       	com	r23
 b74:	61 95       	neg	r22
 b76:	7f 4f       	sbci	r23, 0xFF	; 255
 b78:	8f 4f       	sbci	r24, 0xFF	; 255
 b7a:	9f 4f       	sbci	r25, 0xFF	; 255
 b7c:	f0 68       	ori	r31, 0x80	; 128
 b7e:	3f 2e       	mov	r3, r31
 b80:	2a e0       	ldi	r18, 0x0A	; 10
 b82:	30 e0       	ldi	r19, 0x00	; 0
 b84:	a3 01       	movw	r20, r6
 b86:	0e 94 ea 06 	call	0xdd4	; 0xdd4 <__ultoa_invert>
 b8a:	88 2e       	mov	r8, r24
 b8c:	86 18       	sub	r8, r6
 b8e:	45 c0       	rjmp	.+138    	; 0xc1a <vfprintf+0x2ac>
 b90:	85 37       	cpi	r24, 0x75	; 117
 b92:	31 f4       	brne	.+12     	; 0xba0 <vfprintf+0x232>
 b94:	23 2d       	mov	r18, r3
 b96:	2f 7e       	andi	r18, 0xEF	; 239
 b98:	b2 2e       	mov	r11, r18
 b9a:	2a e0       	ldi	r18, 0x0A	; 10
 b9c:	30 e0       	ldi	r19, 0x00	; 0
 b9e:	25 c0       	rjmp	.+74     	; 0xbea <vfprintf+0x27c>
 ba0:	93 2d       	mov	r25, r3
 ba2:	99 7f       	andi	r25, 0xF9	; 249
 ba4:	b9 2e       	mov	r11, r25
 ba6:	8f 36       	cpi	r24, 0x6F	; 111
 ba8:	c1 f0       	breq	.+48     	; 0xbda <vfprintf+0x26c>
 baa:	18 f4       	brcc	.+6      	; 0xbb2 <vfprintf+0x244>
 bac:	88 35       	cpi	r24, 0x58	; 88
 bae:	79 f0       	breq	.+30     	; 0xbce <vfprintf+0x260>
 bb0:	b5 c0       	rjmp	.+362    	; 0xd1c <vfprintf+0x3ae>
 bb2:	80 37       	cpi	r24, 0x70	; 112
 bb4:	19 f0       	breq	.+6      	; 0xbbc <vfprintf+0x24e>
 bb6:	88 37       	cpi	r24, 0x78	; 120
 bb8:	21 f0       	breq	.+8      	; 0xbc2 <vfprintf+0x254>
 bba:	b0 c0       	rjmp	.+352    	; 0xd1c <vfprintf+0x3ae>
 bbc:	e9 2f       	mov	r30, r25
 bbe:	e0 61       	ori	r30, 0x10	; 16
 bc0:	be 2e       	mov	r11, r30
 bc2:	b4 fe       	sbrs	r11, 4
 bc4:	0d c0       	rjmp	.+26     	; 0xbe0 <vfprintf+0x272>
 bc6:	fb 2d       	mov	r31, r11
 bc8:	f4 60       	ori	r31, 0x04	; 4
 bca:	bf 2e       	mov	r11, r31
 bcc:	09 c0       	rjmp	.+18     	; 0xbe0 <vfprintf+0x272>
 bce:	34 fe       	sbrs	r3, 4
 bd0:	0a c0       	rjmp	.+20     	; 0xbe6 <vfprintf+0x278>
 bd2:	29 2f       	mov	r18, r25
 bd4:	26 60       	ori	r18, 0x06	; 6
 bd6:	b2 2e       	mov	r11, r18
 bd8:	06 c0       	rjmp	.+12     	; 0xbe6 <vfprintf+0x278>
 bda:	28 e0       	ldi	r18, 0x08	; 8
 bdc:	30 e0       	ldi	r19, 0x00	; 0
 bde:	05 c0       	rjmp	.+10     	; 0xbea <vfprintf+0x27c>
 be0:	20 e1       	ldi	r18, 0x10	; 16
 be2:	30 e0       	ldi	r19, 0x00	; 0
 be4:	02 c0       	rjmp	.+4      	; 0xbea <vfprintf+0x27c>
 be6:	20 e1       	ldi	r18, 0x10	; 16
 be8:	32 e0       	ldi	r19, 0x02	; 2
 bea:	f8 01       	movw	r30, r16
 bec:	b7 fe       	sbrs	r11, 7
 bee:	07 c0       	rjmp	.+14     	; 0xbfe <vfprintf+0x290>
 bf0:	60 81       	ld	r22, Z
 bf2:	71 81       	ldd	r23, Z+1	; 0x01
 bf4:	82 81       	ldd	r24, Z+2	; 0x02
 bf6:	93 81       	ldd	r25, Z+3	; 0x03
 bf8:	0c 5f       	subi	r16, 0xFC	; 252
 bfa:	1f 4f       	sbci	r17, 0xFF	; 255
 bfc:	06 c0       	rjmp	.+12     	; 0xc0a <vfprintf+0x29c>
 bfe:	60 81       	ld	r22, Z
 c00:	71 81       	ldd	r23, Z+1	; 0x01
 c02:	80 e0       	ldi	r24, 0x00	; 0
 c04:	90 e0       	ldi	r25, 0x00	; 0
 c06:	0e 5f       	subi	r16, 0xFE	; 254
 c08:	1f 4f       	sbci	r17, 0xFF	; 255
 c0a:	a3 01       	movw	r20, r6
 c0c:	0e 94 ea 06 	call	0xdd4	; 0xdd4 <__ultoa_invert>
 c10:	88 2e       	mov	r8, r24
 c12:	86 18       	sub	r8, r6
 c14:	fb 2d       	mov	r31, r11
 c16:	ff 77       	andi	r31, 0x7F	; 127
 c18:	3f 2e       	mov	r3, r31
 c1a:	36 fe       	sbrs	r3, 6
 c1c:	0d c0       	rjmp	.+26     	; 0xc38 <vfprintf+0x2ca>
 c1e:	23 2d       	mov	r18, r3
 c20:	2e 7f       	andi	r18, 0xFE	; 254
 c22:	a2 2e       	mov	r10, r18
 c24:	89 14       	cp	r8, r9
 c26:	58 f4       	brcc	.+22     	; 0xc3e <vfprintf+0x2d0>
 c28:	34 fe       	sbrs	r3, 4
 c2a:	0b c0       	rjmp	.+22     	; 0xc42 <vfprintf+0x2d4>
 c2c:	32 fc       	sbrc	r3, 2
 c2e:	09 c0       	rjmp	.+18     	; 0xc42 <vfprintf+0x2d4>
 c30:	83 2d       	mov	r24, r3
 c32:	8e 7e       	andi	r24, 0xEE	; 238
 c34:	a8 2e       	mov	r10, r24
 c36:	05 c0       	rjmp	.+10     	; 0xc42 <vfprintf+0x2d4>
 c38:	b8 2c       	mov	r11, r8
 c3a:	a3 2c       	mov	r10, r3
 c3c:	03 c0       	rjmp	.+6      	; 0xc44 <vfprintf+0x2d6>
 c3e:	b8 2c       	mov	r11, r8
 c40:	01 c0       	rjmp	.+2      	; 0xc44 <vfprintf+0x2d6>
 c42:	b9 2c       	mov	r11, r9
 c44:	a4 fe       	sbrs	r10, 4
 c46:	0f c0       	rjmp	.+30     	; 0xc66 <vfprintf+0x2f8>
 c48:	fe 01       	movw	r30, r28
 c4a:	e8 0d       	add	r30, r8
 c4c:	f1 1d       	adc	r31, r1
 c4e:	80 81       	ld	r24, Z
 c50:	80 33       	cpi	r24, 0x30	; 48
 c52:	21 f4       	brne	.+8      	; 0xc5c <vfprintf+0x2ee>
 c54:	9a 2d       	mov	r25, r10
 c56:	99 7e       	andi	r25, 0xE9	; 233
 c58:	a9 2e       	mov	r10, r25
 c5a:	09 c0       	rjmp	.+18     	; 0xc6e <vfprintf+0x300>
 c5c:	a2 fe       	sbrs	r10, 2
 c5e:	06 c0       	rjmp	.+12     	; 0xc6c <vfprintf+0x2fe>
 c60:	b3 94       	inc	r11
 c62:	b3 94       	inc	r11
 c64:	04 c0       	rjmp	.+8      	; 0xc6e <vfprintf+0x300>
 c66:	8a 2d       	mov	r24, r10
 c68:	86 78       	andi	r24, 0x86	; 134
 c6a:	09 f0       	breq	.+2      	; 0xc6e <vfprintf+0x300>
 c6c:	b3 94       	inc	r11
 c6e:	a3 fc       	sbrc	r10, 3
 c70:	11 c0       	rjmp	.+34     	; 0xc94 <vfprintf+0x326>
 c72:	a0 fe       	sbrs	r10, 0
 c74:	06 c0       	rjmp	.+12     	; 0xc82 <vfprintf+0x314>
 c76:	b2 14       	cp	r11, r2
 c78:	88 f4       	brcc	.+34     	; 0xc9c <vfprintf+0x32e>
 c7a:	28 0c       	add	r2, r8
 c7c:	92 2c       	mov	r9, r2
 c7e:	9b 18       	sub	r9, r11
 c80:	0e c0       	rjmp	.+28     	; 0xc9e <vfprintf+0x330>
 c82:	b2 14       	cp	r11, r2
 c84:	60 f4       	brcc	.+24     	; 0xc9e <vfprintf+0x330>
 c86:	b6 01       	movw	r22, r12
 c88:	80 e2       	ldi	r24, 0x20	; 32
 c8a:	90 e0       	ldi	r25, 0x00	; 0
 c8c:	0e 94 ae 06 	call	0xd5c	; 0xd5c <fputc>
 c90:	b3 94       	inc	r11
 c92:	f7 cf       	rjmp	.-18     	; 0xc82 <vfprintf+0x314>
 c94:	b2 14       	cp	r11, r2
 c96:	18 f4       	brcc	.+6      	; 0xc9e <vfprintf+0x330>
 c98:	2b 18       	sub	r2, r11
 c9a:	02 c0       	rjmp	.+4      	; 0xca0 <vfprintf+0x332>
 c9c:	98 2c       	mov	r9, r8
 c9e:	21 2c       	mov	r2, r1
 ca0:	a4 fe       	sbrs	r10, 4
 ca2:	10 c0       	rjmp	.+32     	; 0xcc4 <vfprintf+0x356>
 ca4:	b6 01       	movw	r22, r12
 ca6:	80 e3       	ldi	r24, 0x30	; 48
 ca8:	90 e0       	ldi	r25, 0x00	; 0
 caa:	0e 94 ae 06 	call	0xd5c	; 0xd5c <fputc>
 cae:	a2 fe       	sbrs	r10, 2
 cb0:	17 c0       	rjmp	.+46     	; 0xce0 <vfprintf+0x372>
 cb2:	a1 fc       	sbrc	r10, 1
 cb4:	03 c0       	rjmp	.+6      	; 0xcbc <vfprintf+0x34e>
 cb6:	88 e7       	ldi	r24, 0x78	; 120
 cb8:	90 e0       	ldi	r25, 0x00	; 0
 cba:	02 c0       	rjmp	.+4      	; 0xcc0 <vfprintf+0x352>
 cbc:	88 e5       	ldi	r24, 0x58	; 88
 cbe:	90 e0       	ldi	r25, 0x00	; 0
 cc0:	b6 01       	movw	r22, r12
 cc2:	0c c0       	rjmp	.+24     	; 0xcdc <vfprintf+0x36e>
 cc4:	8a 2d       	mov	r24, r10
 cc6:	86 78       	andi	r24, 0x86	; 134
 cc8:	59 f0       	breq	.+22     	; 0xce0 <vfprintf+0x372>
 cca:	a1 fe       	sbrs	r10, 1
 ccc:	02 c0       	rjmp	.+4      	; 0xcd2 <vfprintf+0x364>
 cce:	8b e2       	ldi	r24, 0x2B	; 43
 cd0:	01 c0       	rjmp	.+2      	; 0xcd4 <vfprintf+0x366>
 cd2:	80 e2       	ldi	r24, 0x20	; 32
 cd4:	a7 fc       	sbrc	r10, 7
 cd6:	8d e2       	ldi	r24, 0x2D	; 45
 cd8:	b6 01       	movw	r22, r12
 cda:	90 e0       	ldi	r25, 0x00	; 0
 cdc:	0e 94 ae 06 	call	0xd5c	; 0xd5c <fputc>
 ce0:	89 14       	cp	r8, r9
 ce2:	38 f4       	brcc	.+14     	; 0xcf2 <vfprintf+0x384>
 ce4:	b6 01       	movw	r22, r12
 ce6:	80 e3       	ldi	r24, 0x30	; 48
 ce8:	90 e0       	ldi	r25, 0x00	; 0
 cea:	0e 94 ae 06 	call	0xd5c	; 0xd5c <fputc>
 cee:	9a 94       	dec	r9
 cf0:	f7 cf       	rjmp	.-18     	; 0xce0 <vfprintf+0x372>
 cf2:	8a 94       	dec	r8
 cf4:	f3 01       	movw	r30, r6
 cf6:	e8 0d       	add	r30, r8
 cf8:	f1 1d       	adc	r31, r1
 cfa:	80 81       	ld	r24, Z
 cfc:	b6 01       	movw	r22, r12
 cfe:	90 e0       	ldi	r25, 0x00	; 0
 d00:	0e 94 ae 06 	call	0xd5c	; 0xd5c <fputc>
 d04:	81 10       	cpse	r8, r1
 d06:	f5 cf       	rjmp	.-22     	; 0xcf2 <vfprintf+0x384>
 d08:	22 20       	and	r2, r2
 d0a:	09 f4       	brne	.+2      	; 0xd0e <vfprintf+0x3a0>
 d0c:	42 ce       	rjmp	.-892    	; 0x992 <vfprintf+0x24>
 d0e:	b6 01       	movw	r22, r12
 d10:	80 e2       	ldi	r24, 0x20	; 32
 d12:	90 e0       	ldi	r25, 0x00	; 0
 d14:	0e 94 ae 06 	call	0xd5c	; 0xd5c <fputc>
 d18:	2a 94       	dec	r2
 d1a:	f6 cf       	rjmp	.-20     	; 0xd08 <vfprintf+0x39a>
 d1c:	f6 01       	movw	r30, r12
 d1e:	86 81       	ldd	r24, Z+6	; 0x06
 d20:	97 81       	ldd	r25, Z+7	; 0x07
 d22:	02 c0       	rjmp	.+4      	; 0xd28 <vfprintf+0x3ba>
 d24:	8f ef       	ldi	r24, 0xFF	; 255
 d26:	9f ef       	ldi	r25, 0xFF	; 255
 d28:	2b 96       	adiw	r28, 0x0b	; 11
 d2a:	e2 e1       	ldi	r30, 0x12	; 18
 d2c:	0c 94 64 07 	jmp	0xec8	; 0xec8 <__epilogue_restores__>

00000d30 <strnlen_P>:
 d30:	fc 01       	movw	r30, r24
 d32:	05 90       	lpm	r0, Z+
 d34:	61 50       	subi	r22, 0x01	; 1
 d36:	70 40       	sbci	r23, 0x00	; 0
 d38:	01 10       	cpse	r0, r1
 d3a:	d8 f7       	brcc	.-10     	; 0xd32 <strnlen_P+0x2>
 d3c:	80 95       	com	r24
 d3e:	90 95       	com	r25
 d40:	8e 0f       	add	r24, r30
 d42:	9f 1f       	adc	r25, r31
 d44:	08 95       	ret

00000d46 <strnlen>:
 d46:	fc 01       	movw	r30, r24
 d48:	61 50       	subi	r22, 0x01	; 1
 d4a:	70 40       	sbci	r23, 0x00	; 0
 d4c:	01 90       	ld	r0, Z+
 d4e:	01 10       	cpse	r0, r1
 d50:	d8 f7       	brcc	.-10     	; 0xd48 <strnlen+0x2>
 d52:	80 95       	com	r24
 d54:	90 95       	com	r25
 d56:	8e 0f       	add	r24, r30
 d58:	9f 1f       	adc	r25, r31
 d5a:	08 95       	ret

00000d5c <fputc>:
 d5c:	0f 93       	push	r16
 d5e:	1f 93       	push	r17
 d60:	cf 93       	push	r28
 d62:	df 93       	push	r29
 d64:	fb 01       	movw	r30, r22
 d66:	23 81       	ldd	r18, Z+3	; 0x03
 d68:	21 fd       	sbrc	r18, 1
 d6a:	03 c0       	rjmp	.+6      	; 0xd72 <fputc+0x16>
 d6c:	8f ef       	ldi	r24, 0xFF	; 255
 d6e:	9f ef       	ldi	r25, 0xFF	; 255
 d70:	2c c0       	rjmp	.+88     	; 0xdca <fputc+0x6e>
 d72:	22 ff       	sbrs	r18, 2
 d74:	16 c0       	rjmp	.+44     	; 0xda2 <fputc+0x46>
 d76:	46 81       	ldd	r20, Z+6	; 0x06
 d78:	57 81       	ldd	r21, Z+7	; 0x07
 d7a:	24 81       	ldd	r18, Z+4	; 0x04
 d7c:	35 81       	ldd	r19, Z+5	; 0x05
 d7e:	42 17       	cp	r20, r18
 d80:	53 07       	cpc	r21, r19
 d82:	44 f4       	brge	.+16     	; 0xd94 <fputc+0x38>
 d84:	a0 81       	ld	r26, Z
 d86:	b1 81       	ldd	r27, Z+1	; 0x01
 d88:	9d 01       	movw	r18, r26
 d8a:	2f 5f       	subi	r18, 0xFF	; 255
 d8c:	3f 4f       	sbci	r19, 0xFF	; 255
 d8e:	31 83       	std	Z+1, r19	; 0x01
 d90:	20 83       	st	Z, r18
 d92:	8c 93       	st	X, r24
 d94:	26 81       	ldd	r18, Z+6	; 0x06
 d96:	37 81       	ldd	r19, Z+7	; 0x07
 d98:	2f 5f       	subi	r18, 0xFF	; 255
 d9a:	3f 4f       	sbci	r19, 0xFF	; 255
 d9c:	37 83       	std	Z+7, r19	; 0x07
 d9e:	26 83       	std	Z+6, r18	; 0x06
 da0:	14 c0       	rjmp	.+40     	; 0xdca <fputc+0x6e>
 da2:	8b 01       	movw	r16, r22
 da4:	ec 01       	movw	r28, r24
 da6:	fb 01       	movw	r30, r22
 da8:	00 84       	ldd	r0, Z+8	; 0x08
 daa:	f1 85       	ldd	r31, Z+9	; 0x09
 dac:	e0 2d       	mov	r30, r0
 dae:	09 95       	icall
 db0:	89 2b       	or	r24, r25
 db2:	e1 f6       	brne	.-72     	; 0xd6c <fputc+0x10>
 db4:	d8 01       	movw	r26, r16
 db6:	16 96       	adiw	r26, 0x06	; 6
 db8:	8d 91       	ld	r24, X+
 dba:	9c 91       	ld	r25, X
 dbc:	17 97       	sbiw	r26, 0x07	; 7
 dbe:	01 96       	adiw	r24, 0x01	; 1
 dc0:	17 96       	adiw	r26, 0x07	; 7
 dc2:	9c 93       	st	X, r25
 dc4:	8e 93       	st	-X, r24
 dc6:	16 97       	sbiw	r26, 0x06	; 6
 dc8:	ce 01       	movw	r24, r28
 dca:	df 91       	pop	r29
 dcc:	cf 91       	pop	r28
 dce:	1f 91       	pop	r17
 dd0:	0f 91       	pop	r16
 dd2:	08 95       	ret

00000dd4 <__ultoa_invert>:
 dd4:	fa 01       	movw	r30, r20
 dd6:	aa 27       	eor	r26, r26
 dd8:	28 30       	cpi	r18, 0x08	; 8
 dda:	51 f1       	breq	.+84     	; 0xe30 <__ultoa_invert+0x5c>
 ddc:	20 31       	cpi	r18, 0x10	; 16
 dde:	81 f1       	breq	.+96     	; 0xe40 <__ultoa_invert+0x6c>
 de0:	e8 94       	clt
 de2:	6f 93       	push	r22
 de4:	6e 7f       	andi	r22, 0xFE	; 254
 de6:	6e 5f       	subi	r22, 0xFE	; 254
 de8:	7f 4f       	sbci	r23, 0xFF	; 255
 dea:	8f 4f       	sbci	r24, 0xFF	; 255
 dec:	9f 4f       	sbci	r25, 0xFF	; 255
 dee:	af 4f       	sbci	r26, 0xFF	; 255
 df0:	b1 e0       	ldi	r27, 0x01	; 1
 df2:	3e d0       	rcall	.+124    	; 0xe70 <__ultoa_invert+0x9c>
 df4:	b4 e0       	ldi	r27, 0x04	; 4
 df6:	3c d0       	rcall	.+120    	; 0xe70 <__ultoa_invert+0x9c>
 df8:	67 0f       	add	r22, r23
 dfa:	78 1f       	adc	r23, r24
 dfc:	89 1f       	adc	r24, r25
 dfe:	9a 1f       	adc	r25, r26
 e00:	a1 1d       	adc	r26, r1
 e02:	68 0f       	add	r22, r24
 e04:	79 1f       	adc	r23, r25
 e06:	8a 1f       	adc	r24, r26
 e08:	91 1d       	adc	r25, r1
 e0a:	a1 1d       	adc	r26, r1
 e0c:	6a 0f       	add	r22, r26
 e0e:	71 1d       	adc	r23, r1
 e10:	81 1d       	adc	r24, r1
 e12:	91 1d       	adc	r25, r1
 e14:	a1 1d       	adc	r26, r1
 e16:	20 d0       	rcall	.+64     	; 0xe58 <__ultoa_invert+0x84>
 e18:	09 f4       	brne	.+2      	; 0xe1c <__ultoa_invert+0x48>
 e1a:	68 94       	set
 e1c:	3f 91       	pop	r19
 e1e:	2a e0       	ldi	r18, 0x0A	; 10
 e20:	26 9f       	mul	r18, r22
 e22:	11 24       	eor	r1, r1
 e24:	30 19       	sub	r19, r0
 e26:	30 5d       	subi	r19, 0xD0	; 208
 e28:	31 93       	st	Z+, r19
 e2a:	de f6       	brtc	.-74     	; 0xde2 <__ultoa_invert+0xe>
 e2c:	cf 01       	movw	r24, r30
 e2e:	08 95       	ret
 e30:	46 2f       	mov	r20, r22
 e32:	47 70       	andi	r20, 0x07	; 7
 e34:	40 5d       	subi	r20, 0xD0	; 208
 e36:	41 93       	st	Z+, r20
 e38:	b3 e0       	ldi	r27, 0x03	; 3
 e3a:	0f d0       	rcall	.+30     	; 0xe5a <__ultoa_invert+0x86>
 e3c:	c9 f7       	brne	.-14     	; 0xe30 <__ultoa_invert+0x5c>
 e3e:	f6 cf       	rjmp	.-20     	; 0xe2c <__ultoa_invert+0x58>
 e40:	46 2f       	mov	r20, r22
 e42:	4f 70       	andi	r20, 0x0F	; 15
 e44:	40 5d       	subi	r20, 0xD0	; 208
 e46:	4a 33       	cpi	r20, 0x3A	; 58
 e48:	18 f0       	brcs	.+6      	; 0xe50 <__ultoa_invert+0x7c>
 e4a:	49 5d       	subi	r20, 0xD9	; 217
 e4c:	31 fd       	sbrc	r19, 1
 e4e:	40 52       	subi	r20, 0x20	; 32
 e50:	41 93       	st	Z+, r20
 e52:	02 d0       	rcall	.+4      	; 0xe58 <__ultoa_invert+0x84>
 e54:	a9 f7       	brne	.-22     	; 0xe40 <__ultoa_invert+0x6c>
 e56:	ea cf       	rjmp	.-44     	; 0xe2c <__ultoa_invert+0x58>
 e58:	b4 e0       	ldi	r27, 0x04	; 4
 e5a:	a6 95       	lsr	r26
 e5c:	97 95       	ror	r25
 e5e:	87 95       	ror	r24
 e60:	77 95       	ror	r23
 e62:	67 95       	ror	r22
 e64:	ba 95       	dec	r27
 e66:	c9 f7       	brne	.-14     	; 0xe5a <__ultoa_invert+0x86>
 e68:	00 97       	sbiw	r24, 0x00	; 0
 e6a:	61 05       	cpc	r22, r1
 e6c:	71 05       	cpc	r23, r1
 e6e:	08 95       	ret
 e70:	9b 01       	movw	r18, r22
 e72:	ac 01       	movw	r20, r24
 e74:	0a 2e       	mov	r0, r26
 e76:	06 94       	lsr	r0
 e78:	57 95       	ror	r21
 e7a:	47 95       	ror	r20
 e7c:	37 95       	ror	r19
 e7e:	27 95       	ror	r18
 e80:	ba 95       	dec	r27
 e82:	c9 f7       	brne	.-14     	; 0xe76 <__ultoa_invert+0xa2>
 e84:	62 0f       	add	r22, r18
 e86:	73 1f       	adc	r23, r19
 e88:	84 1f       	adc	r24, r20
 e8a:	95 1f       	adc	r25, r21
 e8c:	a0 1d       	adc	r26, r0
 e8e:	08 95       	ret

00000e90 <__prologue_saves__>:
 e90:	2f 92       	push	r2
 e92:	3f 92       	push	r3
 e94:	4f 92       	push	r4
 e96:	5f 92       	push	r5
 e98:	6f 92       	push	r6
 e9a:	7f 92       	push	r7
 e9c:	8f 92       	push	r8
 e9e:	9f 92       	push	r9
 ea0:	af 92       	push	r10
 ea2:	bf 92       	push	r11
 ea4:	cf 92       	push	r12
 ea6:	df 92       	push	r13
 ea8:	ef 92       	push	r14
 eaa:	ff 92       	push	r15
 eac:	0f 93       	push	r16
 eae:	1f 93       	push	r17
 eb0:	cf 93       	push	r28
 eb2:	df 93       	push	r29
 eb4:	cd b7       	in	r28, 0x3d	; 61
 eb6:	de b7       	in	r29, 0x3e	; 62
 eb8:	ca 1b       	sub	r28, r26
 eba:	db 0b       	sbc	r29, r27
 ebc:	0f b6       	in	r0, 0x3f	; 63
 ebe:	f8 94       	cli
 ec0:	de bf       	out	0x3e, r29	; 62
 ec2:	0f be       	out	0x3f, r0	; 63
 ec4:	cd bf       	out	0x3d, r28	; 61
 ec6:	09 94       	ijmp

00000ec8 <__epilogue_restores__>:
 ec8:	2a 88       	ldd	r2, Y+18	; 0x12
 eca:	39 88       	ldd	r3, Y+17	; 0x11
 ecc:	48 88       	ldd	r4, Y+16	; 0x10
 ece:	5f 84       	ldd	r5, Y+15	; 0x0f
 ed0:	6e 84       	ldd	r6, Y+14	; 0x0e
 ed2:	7d 84       	ldd	r7, Y+13	; 0x0d
 ed4:	8c 84       	ldd	r8, Y+12	; 0x0c
 ed6:	9b 84       	ldd	r9, Y+11	; 0x0b
 ed8:	aa 84       	ldd	r10, Y+10	; 0x0a
 eda:	b9 84       	ldd	r11, Y+9	; 0x09
 edc:	c8 84       	ldd	r12, Y+8	; 0x08
 ede:	df 80       	ldd	r13, Y+7	; 0x07
 ee0:	ee 80       	ldd	r14, Y+6	; 0x06
 ee2:	fd 80       	ldd	r15, Y+5	; 0x05
 ee4:	0c 81       	ldd	r16, Y+4	; 0x04
 ee6:	1b 81       	ldd	r17, Y+3	; 0x03
 ee8:	aa 81       	ldd	r26, Y+2	; 0x02
 eea:	b9 81       	ldd	r27, Y+1	; 0x01
 eec:	ce 0f       	add	r28, r30
 eee:	d1 1d       	adc	r29, r1
 ef0:	0f b6       	in	r0, 0x3f	; 63
 ef2:	f8 94       	cli
 ef4:	de bf       	out	0x3e, r29	; 62
 ef6:	0f be       	out	0x3f, r0	; 63
 ef8:	cd bf       	out	0x3d, r28	; 61
 efa:	ed 01       	movw	r28, r26
 efc:	08 95       	ret

00000efe <_exit>:
 efe:	f8 94       	cli

00000f00 <__stop_program>:
 f00:	ff cf       	rjmp	.-2      	; 0xf00 <__stop_program>
